   1               		.file	"te.c"
   2               	__SREG__ = 0x3f
   3               	__SP_H__ = 0x3e
   4               	__SP_L__ = 0x3d
   5               	__CCP__  = 0x34
   6               	__tmp_reg__ = 0
   7               	__zero_reg__ = 1
  15               	.Ltext0:
  16               	.global	DRAM_Init
  18               	DRAM_Init:
  19               	.LFB9:
  20               	.LM1:
  21               	/* prologue: function */
  22               	/* frame size = 0 */
  23               	.LM2:
  24 0000 8D9A      		sbi 49-32,5
  25               	.LM3:
  26 0002 8F9A      		sbi 49-32,7
  27               	.LM4:
  28 0004 8E9A      		sbi 49-32,6
  29               	.LM5:
  30 0006 A09A      		sbi 52-32,0
  31               	.LM6:
  32 0008 8FEF      		ldi r24,lo8(-1)
  33 000a 8ABB      		out 58-32,r24
  34               	.LM7:
  35 000c A19A      		sbi 52-32,1
  36               	.LM8:
  37 000e 87B3      		in r24,55-32
  38 0010 807F      		andi r24,lo8(-16)
  39 0012 87BB      		out 55-32,r24
  40               	.LM9:
  41 0014 959A      		sbi 50-32,5
  42               	.LM10:
  43 0016 979A      		sbi 50-32,7
  44               	.LM11:
  45 0018 969A      		sbi 50-32,6
  46               	.LM12:
  47 001a A89A      		sbi 53-32,0
  48               	/* epilogue start */
  49               	.LM13:
  50 001c 0895      		ret
  51               	.LFE9:
  53               	.global	DRAM_Refresh
  55               	DRAM_Refresh:
  56               	.LFB10:
  57               	.LM14:
  58               	/* prologue: function */
  59               	/* frame size = 0 */
  60               	.LM15:
  61 001e 9798      		cbi 50-32,7
  62               	.LM16:
  63               	/* #APP */
  64               	 ;  70 "dram.h" 1
  65 0020 0000      		nop
  66               	 ;  0 "" 2
  67               	.LM17:
  68               	 ;  71 "dram.h" 1
  69 0022 0000      		nop
  70               	 ;  0 "" 2
  71               	.LM18:
  72               	/* #NOAPP */
  73 0024 9598      		cbi 50-32,5
  74               	.LM19:
  75               	/* #APP */
  76               	 ;  73 "dram.h" 1
  77 0026 0000      		nop
  78               	 ;  0 "" 2
  79               	.LM20:
  80               	 ;  74 "dram.h" 1
  81 0028 0000      		nop
  82               	 ;  0 "" 2
  83               	.LM21:
  84               	 ;  75 "dram.h" 1
  85 002a 0000      		nop
  86               	 ;  0 "" 2
  87               	.LM22:
  88               	 ;  76 "dram.h" 1
  89 002c 0000      		nop
  90               	 ;  0 "" 2
  91               	.LM23:
  92               	/* #NOAPP */
  93 002e 979A      		sbi 50-32,7
  94               	.LM24:
  95               	/* #APP */
  96               	 ;  78 "dram.h" 1
  97 0030 0000      		nop
  98               	 ;  0 "" 2
  99               	.LM25:
 100               	 ;  79 "dram.h" 1
 101 0032 0000      		nop
 102               	 ;  0 "" 2
 103               	.LM26:
 104               	/* #NOAPP */
 105 0034 959A      		sbi 50-32,5
 106               	/* epilogue start */
 107               	.LM27:
 108 0036 0895      		ret
 109               	.LFE10:
 111               	.global	DRAM_ReadNibble
 113               	DRAM_ReadNibble:
 114               	.LFB11:
 115               	.LM28:
 116               	.LVL0:
 117 0038 0F93      		push r16
 118 003a 1F93      		push r17
 119               	/* prologue: function */
 120               	/* frame size = 0 */
 121               	.LM29:
 122 003c 27B3      		in r18,55-32
 123 003e 207F      		andi r18,lo8(-16)
 124 0040 27BB      		out 55-32,r18
 125               	.LM30:
 126 0042 A89A      		sbi 53-32,0
 127               	.LM31:
 128 0044 6BBB      		out 59-32,r22
 129               	.LM32:
 130 0046 A998      		cbi 53-32,1
 131               	.LM33:
 132 0048 55B3      		in r21,53-32
 133 004a 8C01      		movw r16,r24
 134 004c 2227      		clr r18
 135 004e 3327      		clr r19
 136 0050 0170      		andi r16,lo8(1)
 137 0052 000F      		lsl r16
 138 0054 052B      		or r16,r21
 139 0056 05BB      		out 53-32,r16
 140               	.LM34:
 141 0058 9598      		cbi 50-32,5
 142               	.LM35:
 143 005a 672F      		mov r22,r23
 144 005c 782F      		mov r23,r24
 145 005e 892F      		mov r24,r25
 146 0060 9927      		clr r25
 147               	.LVL1:
 148 0062 6BBB      		out 59-32,r22
 149               	.LM36:
 150 0064 A998      		cbi 53-32,1
 151               	.LM37:
 152 0066 4423      		tst r20
 153 0068 01F4      		brne .L6
 154 006a A99A      		sbi 53-32,1
 155               	.L6:
 156               	.LM38:
 157 006c 9798      		cbi 50-32,7
 158               	.LM39:
 159               	/* #APP */
 160               	 ;  102 "dram.h" 1
 161 006e 0000      		nop
 162               	 ;  0 "" 2
 163               	.LM40:
 164               	 ;  103 "dram.h" 1
 165 0070 0000      		nop
 166               	 ;  0 "" 2
 167               	.LM41:
 168               	/* #NOAPP */
 169 0072 A898      		cbi 53-32,0
 170               	.LM42:
 171               	/* #APP */
 172               	 ;  106 "dram.h" 1
 173 0074 0000      		nop
 174               	 ;  0 "" 2
 175               	.LM43:
 176               	 ;  107 "dram.h" 1
 177 0076 0000      		nop
 178               	 ;  0 "" 2
 179               	.LM44:
 180               	/* #NOAPP */
 181 0078 86B3      		in r24,54-32
 182               	.LM45:
 183 007a A89A      		sbi 53-32,0
 184               	.LM46:
 185 007c 979A      		sbi 50-32,7
 186               	.LM47:
 187 007e 979A      		sbi 50-32,7
 188               	.LM48:
 189 0080 959A      		sbi 50-32,5
 190               	.LM49:
 191 0082 8F70      		andi r24,lo8(15)
 192               	/* epilogue start */
 193 0084 1F91      		pop r17
 194 0086 0F91      		pop r16
 195 0088 0895      		ret
 196               	.LFE11:
 198               	.global	DRAM_WriteNibble
 200               	DRAM_WriteNibble:
 201               	.LFB12:
 202               	.LM50:
 203               	.LVL2:
 204 008a EF92      		push r14
 205 008c FF92      		push r15
 206 008e 0F93      		push r16
 207 0090 1F93      		push r17
 208               	/* prologue: function */
 209               	/* frame size = 0 */
 210               	.LM51:
 211 0092 A89A      		sbi 53-32,0
 212               	.LM52:
 213 0094 37B3      		in r19,55-32
 214 0096 3F60      		ori r19,lo8(15)
 215 0098 37BB      		out 55-32,r19
 216               	.LM53:
 217 009a 6BBB      		out 59-32,r22
 218               	.LM54:
 219 009c A998      		cbi 53-32,1
 220               	.LM55:
 221 009e 35B3      		in r19,53-32
 222 00a0 7C01      		movw r14,r24
 223 00a2 0027      		clr r16
 224 00a4 1127      		clr r17
 225 00a6 51E0      		ldi r21,lo8(1)
 226 00a8 E522      		and r14,r21
 227 00aa EE0C      		lsl r14
 228 00ac E32A      		or r14,r19
 229 00ae E5BA      		out 53-32,r14
 230               	.LM56:
 231 00b0 9598      		cbi 50-32,5
 232               	.LM57:
 233               	/* #APP */
 234               	 ;  133 "dram.h" 1
 235 00b2 0000      		nop
 236               	 ;  0 "" 2
 237               	.LM58:
 238               	/* #NOAPP */
 239 00b4 9698      		cbi 50-32,6
 240               	.LM59:
 241               	/* #APP */
 242               	 ;  136 "dram.h" 1
 243 00b6 0000      		nop
 244               	 ;  0 "" 2
 245               	.LM60:
 246               	/* #NOAPP */
 247 00b8 672F      		mov r22,r23
 248 00ba 782F      		mov r23,r24
 249 00bc 892F      		mov r24,r25
 250 00be 9927      		clr r25
 251               	.LVL3:
 252 00c0 6BBB      		out 59-32,r22
 253               	.LM61:
 254 00c2 A998      		cbi 53-32,1
 255               	.LM62:
 256 00c4 2223      		tst r18
 257 00c6 01F4      		brne .L9
 258 00c8 A99A      		sbi 53-32,1
 259               	.L9:
 260               	.LM63:
 261 00ca 88B3      		in r24,56-32
 262 00cc 807F      		andi r24,lo8(-16)
 263 00ce 88BB      		out 56-32,r24
 264               	.LM64:
 265 00d0 88B3      		in r24,56-32
 266 00d2 4F70      		andi r20,lo8(15)
 267               	.LVL4:
 268 00d4 842B      		or r24,r20
 269 00d6 88BB      		out 56-32,r24
 270               	.LM65:
 271 00d8 9798      		cbi 50-32,7
 272               	.LM66:
 273               	/* #APP */
 274               	 ;  146 "dram.h" 1
 275 00da 0000      		nop
 276               	 ;  0 "" 2
 277               	.LM67:
 278               	 ;  147 "dram.h" 1
 279 00dc 0000      		nop
 280               	 ;  0 "" 2
 281               	.LM68:
 282               	/* #NOAPP */
 283 00de 969A      		sbi 50-32,6
 284               	.LM69:
 285 00e0 979A      		sbi 50-32,7
 286               	.LM70:
 287 00e2 959A      		sbi 50-32,5
 288               	/* epilogue start */
 289               	.LM71:
 290 00e4 1F91      		pop r17
 291 00e6 0F91      		pop r16
 292 00e8 FF90      		pop r15
 293 00ea EF90      		pop r14
 294 00ec 0895      		ret
 295               	.LFE12:
 297               	.global	DRAM_ReadByte
 299               	DRAM_ReadByte:
 300               	.LFB13:
 301               	.LM72:
 302               	.LVL5:
 303 00ee DF92      		push r13
 304 00f0 EF92      		push r14
 305 00f2 FF92      		push r15
 306 00f4 0F93      		push r16
 307 00f6 1F93      		push r17
 308               	/* prologue: function */
 309               	/* frame size = 0 */
 310 00f8 7B01      		movw r14,r22
 311 00fa 8C01      		movw r16,r24
 312               	.LM73:
 313 00fc 40E0      		ldi r20,lo8(0)
 314 00fe 0E94 0000 		call DRAM_ReadNibble
 315               	.LVL6:
 316               	.LM74:
 317 0102 D82E      		mov r13,r24
 318               	.LVL7:
 319 0104 D294      		swap r13
 320 0106 F0EF      		ldi r31,lo8(-16)
 321 0108 DF22      		and r13,r31
 322               	.LM75:
 323 010a C801      		movw r24,r16
 324 010c B701      		movw r22,r14
 325 010e 41E0      		ldi r20,lo8(1)
 326 0110 0E94 0000 		call DRAM_ReadNibble
 327               	.LM76:
 328 0114 8D29      		or r24,r13
 329               	/* epilogue start */
 330 0116 1F91      		pop r17
 331 0118 0F91      		pop r16
 332 011a FF90      		pop r15
 333 011c EF90      		pop r14
 334               	.LVL8:
 335 011e DF90      		pop r13
 336               	.LVL9:
 337 0120 0895      		ret
 338               	.LFE13:
 340               	.global	DRAM_WriteByte
 342               	DRAM_WriteByte:
 343               	.LFB14:
 344               	.LM77:
 345               	.LVL10:
 346 0122 DF92      		push r13
 347 0124 EF92      		push r14
 348 0126 FF92      		push r15
 349 0128 0F93      		push r16
 350 012a 1F93      		push r17
 351               	/* prologue: function */
 352               	/* frame size = 0 */
 353 012c 7B01      		movw r14,r22
 354 012e 8C01      		movw r16,r24
 355 0130 D42E      		mov r13,r20
 356               	.LM78:
 357 0132 4295      		swap r20
 358               	.LVL11:
 359 0134 4F70      		andi r20,lo8(15)
 360 0136 20E0      		ldi r18,lo8(0)
 361 0138 0E94 0000 		call DRAM_WriteNibble
 362               	.LVL12:
 363               	.LM79:
 364 013c 8FE0      		ldi r24,lo8(15)
 365 013e D822      		and r13,r24
 366 0140 C801      		movw r24,r16
 367 0142 B701      		movw r22,r14
 368 0144 4D2D      		mov r20,r13
 369 0146 21E0      		ldi r18,lo8(1)
 370 0148 0E94 0000 		call DRAM_WriteNibble
 371               	/* epilogue start */
 372               	.LM80:
 373 014c 1F91      		pop r17
 374 014e 0F91      		pop r16
 375 0150 FF90      		pop r15
 376 0152 EF90      		pop r14
 377               	.LVL13:
 378 0154 DF90      		pop r13
 379               	.LVL14:
 380 0156 0895      		ret
 381               	.LFE14:
 383               	.global	WH1602_SendNibble
 385               	WH1602_SendNibble:
 386               	.LFB16:
 387               	.LM81:
 388               	.LVL15:
 389               	/* prologue: function */
 390               	/* frame size = 0 */
 391               	.LM82:
 392 0158 AD98      		cbi 53-32,5
 393               	.LM83:
 394 015a AC98      		cbi 53-32,4
 395               	.LM84:
 396 015c AB98      		cbi 53-32,3
 397               	.LM85:
 398 015e AA98      		cbi 53-32,2
 399               	.LM86:
 400 0160 AE9A      		sbi 53-32,6
 401               	.LM87:
 402 0162 45B3      		in r20,53-32
 403 0164 282F      		mov r18,r24
 404 0166 2695      		lsr r18
 405 0168 2695      		lsr r18
 406 016a 2695      		lsr r18
 407 016c 30E0      		ldi r19,lo8(0)
 408 016e 2170      		andi r18,lo8(1)
 409 0170 3070      		andi r19,hi8(1)
 410 0172 55E0      		ldi r21,5
 411 0174 220F      	1:	lsl r18
 412 0176 331F      		rol r19
 413 0178 5A95      		dec r21
 414 017a 01F4      		brne 1b
 415 017c 422B      		or r20,r18
 416 017e 45BB      		out 53-32,r20
 417               	.LM88:
 418 0180 45B3      		in r20,53-32
 419 0182 282F      		mov r18,r24
 420 0184 2695      		lsr r18
 421 0186 2695      		lsr r18
 422 0188 30E0      		ldi r19,lo8(0)
 423 018a 2170      		andi r18,lo8(1)
 424 018c 3070      		andi r19,hi8(1)
 425 018e 94E0      		ldi r25,4
 426 0190 220F      	1:	lsl r18
 427 0192 331F      		rol r19
 428 0194 9A95      		dec r25
 429 0196 01F4      		brne 1b
 430 0198 422B      		or r20,r18
 431 019a 45BB      		out 53-32,r20
 432               	.LM89:
 433 019c 45B3      		in r20,53-32
 434 019e 282F      		mov r18,r24
 435 01a0 2695      		lsr r18
 436 01a2 30E0      		ldi r19,lo8(0)
 437 01a4 2170      		andi r18,lo8(1)
 438 01a6 3070      		andi r19,hi8(1)
 439 01a8 B3E0      		ldi r27,3
 440 01aa 220F      	1:	lsl r18
 441 01ac 331F      		rol r19
 442 01ae BA95      		dec r27
 443 01b0 01F4      		brne 1b
 444 01b2 422B      		or r20,r18
 445 01b4 45BB      		out 53-32,r20
 446               	.LM90:
 447 01b6 25B3      		in r18,53-32
 448 01b8 90E0      		ldi r25,lo8(0)
 449               	.LVL16:
 450 01ba 8170      		andi r24,lo8(1)
 451 01bc 9070      		andi r25,hi8(1)
 452               	.LVL17:
 453 01be 880F      		lsl r24
 454 01c0 991F      		rol r25
 455 01c2 880F      		lsl r24
 456 01c4 991F      		rol r25
 457               	.LVL18:
 458 01c6 282B      		or r18,r24
 459 01c8 25BB      		out 53-32,r18
 460               	.LBB394:
 461               	.LBB395:
 462               	.LBB396:
 463               	.LBB397:
 464               	.LBB398:
 465               	.LBB399:
 466               	.LM91:
 467 01ca 80E9      		ldi r24,lo8(400)
 468 01cc 91E0      		ldi r25,hi8(400)
 469               	.LVL19:
 470 01ce FC01      		movw r30,r24
 471               	.LVL20:
 472               	/* #APP */
 473               	 ;  105 "c:/winavr-20100110/lib/gcc/../../avr/include/util/delay_basic.h" 1
 474 01d0 3197      		1: sbiw r30,1
 475 01d2 01F4      		brne 1b
 476               	 ;  0 "" 2
 477               	/* #NOAPP */
 478               	.LBE399:
 479               	.LBE398:
 480               	.LBE397:
 481               	.LBE396:
 482               	.LBE395:
 483               	.LBE394:
 484               	.LM92:
 485 01d4 AE98      		cbi 53-32,6
 486               	.LBB400:
 487               	.LBB401:
 488               	.LBB402:
 489               	.LBB403:
 490               	.LBB404:
 491               	.LBB405:
 492               	.LM93:
 493               	/* #APP */
 494               	 ;  105 "c:/winavr-20100110/lib/gcc/../../avr/include/util/delay_basic.h" 1
 495 01d6 0197      		1: sbiw r24,1
 496 01d8 01F4      		brne 1b
 497               	 ;  0 "" 2
 498               	.LVL21:
 499               	/* epilogue start */
 500               	/* #NOAPP */
 501               	.LBE405:
 502               	.LBE404:
 503               	.LBE403:
 504               	.LBE402:
 505               	.LBE401:
 506               	.LBE400:
 507               	.LM94:
 508 01da 0895      		ret
 509               	.LFE16:
 511               	.global	WH1602_SendData
 513               	WH1602_SendData:
 514               	.LFB17:
 515               	.LM95:
 516               	.LVL22:
 517 01dc 1F93      		push r17
 518               	/* prologue: function */
 519               	/* frame size = 0 */
 520 01de 182F      		mov r17,r24
 521               	.LM96:
 522 01e0 AF9A      		sbi 53-32,7
 523               	.LM97:
 524 01e2 8295      		swap r24
 525               	.LVL23:
 526 01e4 8F70      		andi r24,lo8(15)
 527 01e6 0E94 0000 		call WH1602_SendNibble
 528               	.LM98:
 529 01ea 812F      		mov r24,r17
 530 01ec 8F70      		andi r24,lo8(15)
 531 01ee 0E94 0000 		call WH1602_SendNibble
 532               	/* epilogue start */
 533               	.LM99:
 534 01f2 1F91      		pop r17
 535               	.LVL24:
 536 01f4 0895      		ret
 537               	.LFE17:
 539               	.global	WH1602_SendCommand
 541               	WH1602_SendCommand:
 542               	.LFB18:
 543               	.LM100:
 544               	.LVL25:
 545 01f6 1F93      		push r17
 546               	/* prologue: function */
 547               	/* frame size = 0 */
 548 01f8 182F      		mov r17,r24
 549               	.LM101:
 550 01fa AF98      		cbi 53-32,7
 551               	.LM102:
 552 01fc 8295      		swap r24
 553               	.LVL26:
 554 01fe 8F70      		andi r24,lo8(15)
 555 0200 0E94 0000 		call WH1602_SendNibble
 556               	.LM103:
 557 0204 812F      		mov r24,r17
 558 0206 8F70      		andi r24,lo8(15)
 559 0208 0E94 0000 		call WH1602_SendNibble
 560               	/* epilogue start */
 561               	.LM104:
 562 020c 1F91      		pop r17
 563               	.LVL27:
 564 020e 0895      		ret
 565               	.LFE18:
 567               	.global	WH1602_Init
 569               	WH1602_Init:
 570               	.LFB15:
 571               	.LM105:
 572               	/* prologue: function */
 573               	/* frame size = 0 */
 574               	.LM106:
 575 0210 A79A      		sbi 52-32,7
 576               	.LM107:
 577 0212 A69A      		sbi 52-32,6
 578               	.LM108:
 579 0214 A59A      		sbi 52-32,5
 580               	.LM109:
 581 0216 A49A      		sbi 52-32,4
 582               	.LM110:
 583 0218 A39A      		sbi 52-32,3
 584               	.LM111:
 585 021a A29A      		sbi 52-32,2
 586 021c 88EE      		ldi r24,lo8(1000)
 587 021e 93E0      		ldi r25,hi8(1000)
 588               	.LVL28:
 589               	.LBB406:
 590               	.LBB407:
 591               	.LBB408:
 592               	.LBB409:
 593               	.LM112:
 594 0220 20E9      		ldi r18,lo8(400)
 595 0222 31E0      		ldi r19,hi8(400)
 596               	.L22:
 597 0224 F901      		movw r30,r18
 598               	.LVL29:
 599               	/* #APP */
 600               	 ;  105 "c:/winavr-20100110/lib/gcc/../../avr/include/util/delay_basic.h" 1
 601 0226 3197      		1: sbiw r30,1
 602 0228 01F4      		brne 1b
 603               	 ;  0 "" 2
 604               	/* #NOAPP */
 605               	.LBE409:
 606               	.LBE408:
 607               	.LM113:
 608 022a 0197      		sbiw r24,1
 609               	.LM114:
 610 022c 01F4      		brne .L22
 611               	.LBE407:
 612               	.LBE406:
 613               	.LM115:
 614 022e AF98      		cbi 53-32,7
 615               	.LM116:
 616 0230 83E0      		ldi r24,lo8(3)
 617               	.LVL30:
 618 0232 0E94 0000 		call WH1602_SendNibble
 619               	.LVL31:
 620 0236 88EE      		ldi r24,lo8(1000)
 621 0238 93E0      		ldi r25,hi8(1000)
 622               	.LVL32:
 623               	.LBB410:
 624               	.LBB411:
 625               	.LBB412:
 626               	.LBB413:
 627               	.LM117:
 628 023a 20E9      		ldi r18,lo8(400)
 629 023c 31E0      		ldi r19,hi8(400)
 630               	.L23:
 631 023e F901      		movw r30,r18
 632               	.LVL33:
 633               	/* #APP */
 634               	 ;  105 "c:/winavr-20100110/lib/gcc/../../avr/include/util/delay_basic.h" 1
 635 0240 3197      		1: sbiw r30,1
 636 0242 01F4      		brne 1b
 637               	 ;  0 "" 2
 638               	/* #NOAPP */
 639               	.LBE413:
 640               	.LBE412:
 641               	.LM118:
 642 0244 0197      		sbiw r24,1
 643               	.LM119:
 644 0246 01F4      		brne .L23
 645               	.LBE411:
 646               	.LBE410:
 647               	.LM120:
 648 0248 83E0      		ldi r24,lo8(3)
 649               	.LVL34:
 650 024a 0E94 0000 		call WH1602_SendNibble
 651               	.LVL35:
 652               	.LBB414:
 653               	.LBB415:
 654               	.LBB416:
 655               	.LBB417:
 656               	.LBB418:
 657               	.LBB419:
 658               	.LM121:
 659 024e 80E2      		ldi r24,lo8(800)
 660 0250 93E0      		ldi r25,hi8(800)
 661               	.LVL36:
 662               	/* #APP */
 663               	 ;  105 "c:/winavr-20100110/lib/gcc/../../avr/include/util/delay_basic.h" 1
 664 0252 0197      		1: sbiw r24,1
 665 0254 01F4      		brne 1b
 666               	 ;  0 "" 2
 667               	/* #NOAPP */
 668               	.LBE419:
 669               	.LBE418:
 670               	.LBE417:
 671               	.LBE416:
 672               	.LBE415:
 673               	.LBE414:
 674               	.LM122:
 675 0256 83E0      		ldi r24,lo8(3)
 676               	.LVL37:
 677 0258 0E94 0000 		call WH1602_SendNibble
 678               	.LM123:
 679 025c 82E0      		ldi r24,lo8(2)
 680 025e 0E94 0000 		call WH1602_SendNibble
 681               	.LM124:
 682 0262 8CE2      		ldi r24,lo8(44)
 683 0264 0E94 0000 		call WH1602_SendCommand
 684 0268 88E5      		ldi r24,lo8(600)
 685 026a 92E0      		ldi r25,hi8(600)
 686               	.LVL38:
 687               	.LBB420:
 688               	.LBB421:
 689               	.LBB422:
 690               	.LBB423:
 691               	.LM125:
 692 026c 20E9      		ldi r18,lo8(400)
 693 026e 31E0      		ldi r19,hi8(400)
 694               	.L24:
 695 0270 F901      		movw r30,r18
 696               	.LVL39:
 697               	/* #APP */
 698               	 ;  105 "c:/winavr-20100110/lib/gcc/../../avr/include/util/delay_basic.h" 1
 699 0272 3197      		1: sbiw r30,1
 700 0274 01F4      		brne 1b
 701               	 ;  0 "" 2
 702               	/* #NOAPP */
 703               	.LBE423:
 704               	.LBE422:
 705               	.LM126:
 706 0276 0197      		sbiw r24,1
 707               	.LM127:
 708 0278 01F4      		brne .L24
 709               	.LBE421:
 710               	.LBE420:
 711               	.LM128:
 712 027a 88E0      		ldi r24,lo8(8)
 713               	.LVL40:
 714 027c 0E94 0000 		call WH1602_SendCommand
 715               	.LVL41:
 716 0280 88E5      		ldi r24,lo8(600)
 717 0282 92E0      		ldi r25,hi8(600)
 718               	.LVL42:
 719               	.LBB424:
 720               	.LBB425:
 721               	.LBB426:
 722               	.LBB427:
 723               	.LM129:
 724 0284 20E9      		ldi r18,lo8(400)
 725 0286 31E0      		ldi r19,hi8(400)
 726               	.L25:
 727 0288 F901      		movw r30,r18
 728               	.LVL43:
 729               	/* #APP */
 730               	 ;  105 "c:/winavr-20100110/lib/gcc/../../avr/include/util/delay_basic.h" 1
 731 028a 3197      		1: sbiw r30,1
 732 028c 01F4      		brne 1b
 733               	 ;  0 "" 2
 734               	/* #NOAPP */
 735               	.LBE427:
 736               	.LBE426:
 737               	.LM130:
 738 028e 0197      		sbiw r24,1
 739               	.LM131:
 740 0290 01F4      		brne .L25
 741               	.LBE425:
 742               	.LBE424:
 743               	.LM132:
 744 0292 81E0      		ldi r24,lo8(1)
 745               	.LVL44:
 746 0294 0E94 0000 		call WH1602_SendCommand
 747               	.LVL45:
 748 0298 88E5      		ldi r24,lo8(600)
 749 029a 92E0      		ldi r25,hi8(600)
 750               	.LVL46:
 751               	.LBB428:
 752               	.LBB429:
 753               	.LBB430:
 754               	.LBB431:
 755               	.LM133:
 756 029c 20E9      		ldi r18,lo8(400)
 757 029e 31E0      		ldi r19,hi8(400)
 758               	.L26:
 759 02a0 F901      		movw r30,r18
 760               	.LVL47:
 761               	/* #APP */
 762               	 ;  105 "c:/winavr-20100110/lib/gcc/../../avr/include/util/delay_basic.h" 1
 763 02a2 3197      		1: sbiw r30,1
 764 02a4 01F4      		brne 1b
 765               	 ;  0 "" 2
 766               	/* #NOAPP */
 767               	.LBE431:
 768               	.LBE430:
 769               	.LM134:
 770 02a6 0197      		sbiw r24,1
 771               	.LM135:
 772 02a8 01F4      		brne .L26
 773               	.LBE429:
 774               	.LBE428:
 775               	.LM136:
 776 02aa 86E0      		ldi r24,lo8(6)
 777               	.LVL48:
 778 02ac 0E94 0000 		call WH1602_SendCommand
 779               	.LVL49:
 780               	.LM137:
 781 02b0 8CE0      		ldi r24,lo8(12)
 782 02b2 0E94 0000 		call WH1602_SendCommand
 783 02b6 88E5      		ldi r24,lo8(600)
 784 02b8 92E0      		ldi r25,hi8(600)
 785               	.LVL50:
 786               	.LBB432:
 787               	.LBB433:
 788               	.LBB434:
 789               	.LBB435:
 790               	.LM138:
 791 02ba 20E9      		ldi r18,lo8(400)
 792 02bc 31E0      		ldi r19,hi8(400)
 793               	.L27:
 794 02be F901      		movw r30,r18
 795               	.LVL51:
 796               	/* #APP */
 797               	 ;  105 "c:/winavr-20100110/lib/gcc/../../avr/include/util/delay_basic.h" 1
 798 02c0 3197      		1: sbiw r30,1
 799 02c2 01F4      		brne 1b
 800               	 ;  0 "" 2
 801               	/* #NOAPP */
 802               	.LBE435:
 803               	.LBE434:
 804               	.LM139:
 805 02c4 0197      		sbiw r24,1
 806               	.LM140:
 807 02c6 01F4      		brne .L27
 808               	/* epilogue start */
 809               	.LBE433:
 810               	.LBE432:
 811               	.LM141:
 812 02c8 0895      		ret
 813               	.LFE15:
 815               	.global	WH1602_SetTextUpLine
 817               	WH1602_SetTextUpLine:
 818               	.LFB19:
 819               	.LM142:
 820               	.LVL52:
 821 02ca AF92      		push r10
 822 02cc BF92      		push r11
 823 02ce CF92      		push r12
 824 02d0 DF92      		push r13
 825 02d2 FF92      		push r15
 826 02d4 0F93      		push r16
 827 02d6 1F93      		push r17
 828 02d8 DF93      		push r29
 829 02da CF93      		push r28
 830 02dc CDB7      		in r28,__SP_L__
 831 02de DEB7      		in r29,__SP_H__
 832 02e0 6097      		sbiw r28,16
 833 02e2 0FB6      		in __tmp_reg__,__SREG__
 834 02e4 F894      		cli
 835 02e6 DEBF      		out __SP_H__,r29
 836 02e8 0FBE      		out __SREG__,__tmp_reg__
 837 02ea CDBF      		out __SP_L__,r28
 838               	/* prologue: function */
 839               	/* frame size = 16 */
 840 02ec 182F      		mov r17,r24
 841 02ee 092F      		mov r16,r25
 842               	.LVL53:
 843               	.LM143:
 844 02f0 80E8      		ldi r24,lo8(-128)
 845               	.LVL54:
 846 02f2 0E94 0000 		call WH1602_SendCommand
 847               	.LVL55:
 848               	.LBB436:
 849               	.LBB437:
 850               	.LBB438:
 851               	.LBB439:
 852               	.LBB440:
 853               	.LBB441:
 854               	.LM144:
 855 02f6 80E9      		ldi r24,lo8(400)
 856 02f8 91E0      		ldi r25,hi8(400)
 857               	.LVL56:
 858               	/* #APP */
 859               	 ;  105 "c:/winavr-20100110/lib/gcc/../../avr/include/util/delay_basic.h" 1
 860 02fa 0197      		1: sbiw r24,1
 861 02fc 01F4      		brne 1b
 862               	 ;  0 "" 2
 863               	/* #NOAPP */
 864 02fe 212F      		mov r18,r17
 865 0300 302F      		mov r19,r16
 866 0302 C901      		movw r24,r18
 867               	.LVL57:
 868 0304 6C01      		movw r12,r24
 869 0306 DE01      		movw r26,r28
 870 0308 1196      		adiw r26,1
 871 030a 9C01      		movw r18,r24
 872               	.LBE441:
 873               	.LBE440:
 874               	.LBE439:
 875               	.LBE438:
 876               	.LBE437:
 877               	.LBE436:
 878               	.LM145:
 879 030c BE01      		movw r22,r28
 880 030e 6F5E      		subi r22,lo8(-(17))
 881 0310 7F4F      		sbci r23,hi8(-(17))
 882               	.LVL58:
 883               	.L39:
 884               	.LBB442:
 885               	.LM146:
 886 0312 F901      		movw r30,r18
 887               	.LVL59:
 888 0314 4081      		ld r20,Z
 889               	.LM147:
 890 0316 4C93      		st X,r20
 891 0318 80E0      		ldi r24,lo8(0)
 892 031a 90E0      		ldi r25,hi8(0)
 893               	.LVL60:
 894               	.L38:
 895               	.LBB443:
 896               	.LBB444:
 897               	.LBB445:
 898               	.LM148:
 899 031c FC01      		movw r30,r24
 900               	.LVL61:
 901 031e E050      		subi r30,lo8(-(RusCodeTable))
 902 0320 F040      		sbci r31,hi8(-(RusCodeTable))
 903               	/* #APP */
 904               	 ;  206 "wh1602.h" 1
 905 0322 E491      		lpm r30, Z
 906               		
 907               	 ;  0 "" 2
 908               	.LVL62:
 909               	/* #NOAPP */
 910               	.LBE445:
 911               	.LM149:
 912 0324 E417      		cp r30,r20
 913 0326 01F4      		brne .L36
 914               	.LBB446:
 915               	.LM150:
 916 0328 8050      		subi r24,lo8(-(RusCodeTable+1))
 917 032a 9040      		sbci r25,hi8(-(RusCodeTable+1))
 918 032c FC01      		movw r30,r24
 919               	.LVL63:
 920               	/* #APP */
 921               	 ;  209 "wh1602.h" 1
 922 032e 8491      		lpm r24, Z
 923               		
 924               	 ;  0 "" 2
 925               	.LVL64:
 926               	/* #NOAPP */
 927               	.LBE446:
 928 0330 8C93      		st X,r24
 929 0332 00C0      		rjmp .L37
 930               	.LVL65:
 931               	.L36:
 932               	.LM151:
 933 0334 0296      		adiw r24,2
 934               	.LBE444:
 935               	.LM152:
 936 0336 8438      		cpi r24,132
 937 0338 9105      		cpc r25,__zero_reg__
 938 033a 01F4      		brne .L38
 939               	.LVL66:
 940               	.L37:
 941 033c 2F5F      		subi r18,lo8(-(1))
 942 033e 3F4F      		sbci r19,hi8(-(1))
 943 0340 1196      		adiw r26,1
 944               	.LBE443:
 945               	.LBE442:
 946               	.LM153:
 947 0342 A617      		cp r26,r22
 948 0344 B707      		cpc r27,r23
 949 0346 01F4      		brne .L39
 950 0348 00E0      		ldi r16,lo8(0)
 951 034a 10E0      		ldi r17,hi8(0)
 952               	.LVL67:
 953               	.LM154:
 954 034c 5E01      		movw r10,r28
 955 034e 0894      		sec
 956 0350 A11C      		adc r10,__zero_reg__
 957 0352 B11C      		adc r11,__zero_reg__
 958               	.LVL68:
 959               	.L41:
 960               	.LM155:
 961 0354 F02E      		mov r15,r16
 962               	.LM156:
 963 0356 F601      		movw r30,r12
 964               	.LVL69:
 965 0358 8081      		ld r24,Z
 966               	.LVL70:
 967 035a 8823      		tst r24
 968 035c 01F0      		breq .L47
 969               	.LM157:
 970 035e F501      		movw r30,r10
 971 0360 E00F      		add r30,r16
 972 0362 F11F      		adc r31,r17
 973 0364 8081      		ld r24,Z
 974 0366 0E94 0000 		call WH1602_SendData
 975               	.LVL71:
 976 036a F394      		inc r15
 977 036c 0F5F      		subi r16,lo8(-(1))
 978 036e 1F4F      		sbci r17,hi8(-(1))
 979 0370 0894      		sec
 980 0372 C11C      		adc r12,__zero_reg__
 981 0374 D11C      		adc r13,__zero_reg__
 982               	.LM158:
 983 0376 0031      		cpi r16,16
 984 0378 1105      		cpc r17,__zero_reg__
 985 037a 01F4      		brne .L41
 986 037c 00C0      		rjmp .L47
 987               	.LVL72:
 988               	.L42:
 989               	.LM159:
 990 037e 80E2      		ldi r24,lo8(32)
 991 0380 0E94 0000 		call WH1602_SendData
 992               	.LVL73:
 993 0384 F394      		inc r15
 994               	.LVL74:
 995               	.L47:
 996 0386 FFE0      		ldi r31,lo8(15)
 997 0388 FF15      		cp r31,r15
 998 038a 00F4      		brsh .L42
 999               	/* epilogue start */
 1000               	.LM160:
 1001 038c 6096      		adiw r28,16
 1002 038e 0FB6      		in __tmp_reg__,__SREG__
 1003 0390 F894      		cli
 1004 0392 DEBF      		out __SP_H__,r29
 1005 0394 0FBE      		out __SREG__,__tmp_reg__
 1006 0396 CDBF      		out __SP_L__,r28
 1007 0398 CF91      		pop r28
 1008 039a DF91      		pop r29
 1009 039c 1F91      		pop r17
 1010               	.LVL75:
 1011 039e 0F91      		pop r16
 1012 03a0 FF90      		pop r15
 1013               	.LVL76:
 1014 03a2 DF90      		pop r13
 1015 03a4 CF90      		pop r12
 1016 03a6 BF90      		pop r11
 1017 03a8 AF90      		pop r10
 1018 03aa 0895      		ret
 1019               	.LFE19:
 1021               	.global	WH1602_SetTextDownLine
 1023               	WH1602_SetTextDownLine:
 1024               	.LFB20:
 1025               	.LM161:
 1026               	.LVL77:
 1027 03ac AF92      		push r10
 1028 03ae BF92      		push r11
 1029 03b0 CF92      		push r12
 1030 03b2 DF92      		push r13
 1031 03b4 FF92      		push r15
 1032 03b6 0F93      		push r16
 1033 03b8 1F93      		push r17
 1034 03ba DF93      		push r29
 1035 03bc CF93      		push r28
 1036 03be CDB7      		in r28,__SP_L__
 1037 03c0 DEB7      		in r29,__SP_H__
 1038 03c2 6097      		sbiw r28,16
 1039 03c4 0FB6      		in __tmp_reg__,__SREG__
 1040 03c6 F894      		cli
 1041 03c8 DEBF      		out __SP_H__,r29
 1042 03ca 0FBE      		out __SREG__,__tmp_reg__
 1043 03cc CDBF      		out __SP_L__,r28
 1044               	/* prologue: function */
 1045               	/* frame size = 16 */
 1046 03ce 182F      		mov r17,r24
 1047 03d0 092F      		mov r16,r25
 1048               	.LVL78:
 1049               	.LM162:
 1050 03d2 88EA      		ldi r24,lo8(-88)
 1051               	.LVL79:
 1052 03d4 0E94 0000 		call WH1602_SendCommand
 1053               	.LVL80:
 1054               	.LBB447:
 1055               	.LBB448:
 1056               	.LBB449:
 1057               	.LBB450:
 1058               	.LBB451:
 1059               	.LBB452:
 1060               	.LM163:
 1061 03d8 80E9      		ldi r24,lo8(400)
 1062 03da 91E0      		ldi r25,hi8(400)
 1063               	.LVL81:
 1064               	/* #APP */
 1065               	 ;  105 "c:/winavr-20100110/lib/gcc/../../avr/include/util/delay_basic.h" 1
 1066 03dc 0197      		1: sbiw r24,1
 1067 03de 01F4      		brne 1b
 1068               	 ;  0 "" 2
 1069               	/* #NOAPP */
 1070 03e0 212F      		mov r18,r17
 1071 03e2 302F      		mov r19,r16
 1072 03e4 C901      		movw r24,r18
 1073               	.LVL82:
 1074 03e6 6C01      		movw r12,r24
 1075 03e8 DE01      		movw r26,r28
 1076 03ea 1196      		adiw r26,1
 1077 03ec 9C01      		movw r18,r24
 1078               	.LBE452:
 1079               	.LBE451:
 1080               	.LBE450:
 1081               	.LBE449:
 1082               	.LBE448:
 1083               	.LBE447:
 1084               	.LM164:
 1085 03ee BE01      		movw r22,r28
 1086 03f0 6F5E      		subi r22,lo8(-(17))
 1087 03f2 7F4F      		sbci r23,hi8(-(17))
 1088               	.LVL83:
 1089               	.L52:
 1090               	.LBB453:
 1091               	.LM165:
 1092 03f4 F901      		movw r30,r18
 1093               	.LVL84:
 1094 03f6 4081      		ld r20,Z
 1095               	.LM166:
 1096 03f8 4C93      		st X,r20
 1097 03fa 80E0      		ldi r24,lo8(0)
 1098 03fc 90E0      		ldi r25,hi8(0)
 1099               	.LVL85:
 1100               	.L51:
 1101               	.LBB454:
 1102               	.LBB455:
 1103               	.LBB456:
 1104               	.LM167:
 1105 03fe FC01      		movw r30,r24
 1106               	.LVL86:
 1107 0400 E050      		subi r30,lo8(-(RusCodeTable))
 1108 0402 F040      		sbci r31,hi8(-(RusCodeTable))
 1109               	/* #APP */
 1110               	 ;  238 "wh1602.h" 1
 1111 0404 E491      		lpm r30, Z
 1112               		
 1113               	 ;  0 "" 2
 1114               	.LVL87:
 1115               	/* #NOAPP */
 1116               	.LBE456:
 1117               	.LM168:
 1118 0406 E417      		cp r30,r20
 1119 0408 01F4      		brne .L49
 1120               	.LBB457:
 1121               	.LM169:
 1122 040a 8050      		subi r24,lo8(-(RusCodeTable+1))
 1123 040c 9040      		sbci r25,hi8(-(RusCodeTable+1))
 1124 040e FC01      		movw r30,r24
 1125               	.LVL88:
 1126               	/* #APP */
 1127               	 ;  241 "wh1602.h" 1
 1128 0410 8491      		lpm r24, Z
 1129               		
 1130               	 ;  0 "" 2
 1131               	.LVL89:
 1132               	/* #NOAPP */
 1133               	.LBE457:
 1134 0412 8C93      		st X,r24
 1135 0414 00C0      		rjmp .L50
 1136               	.LVL90:
 1137               	.L49:
 1138               	.LM170:
 1139 0416 0296      		adiw r24,2
 1140               	.LBE455:
 1141               	.LM171:
 1142 0418 8438      		cpi r24,132
 1143 041a 9105      		cpc r25,__zero_reg__
 1144 041c 01F4      		brne .L51
 1145               	.LVL91:
 1146               	.L50:
 1147 041e 2F5F      		subi r18,lo8(-(1))
 1148 0420 3F4F      		sbci r19,hi8(-(1))
 1149 0422 1196      		adiw r26,1
 1150               	.LBE454:
 1151               	.LBE453:
 1152               	.LM172:
 1153 0424 A617      		cp r26,r22
 1154 0426 B707      		cpc r27,r23
 1155 0428 01F4      		brne .L52
 1156 042a 00E0      		ldi r16,lo8(0)
 1157 042c 10E0      		ldi r17,hi8(0)
 1158               	.LVL92:
 1159               	.LM173:
 1160 042e 5E01      		movw r10,r28
 1161 0430 0894      		sec
 1162 0432 A11C      		adc r10,__zero_reg__
 1163 0434 B11C      		adc r11,__zero_reg__
 1164               	.LVL93:
 1165               	.L54:
 1166               	.LM174:
 1167 0436 F02E      		mov r15,r16
 1168               	.LM175:
 1169 0438 F601      		movw r30,r12
 1170               	.LVL94:
 1171 043a 8081      		ld r24,Z
 1172               	.LVL95:
 1173 043c 8823      		tst r24
 1174 043e 01F0      		breq .L60
 1175               	.LM176:
 1176 0440 F501      		movw r30,r10
 1177 0442 E00F      		add r30,r16
 1178 0444 F11F      		adc r31,r17
 1179 0446 8081      		ld r24,Z
 1180 0448 0E94 0000 		call WH1602_SendData
 1181               	.LVL96:
 1182 044c F394      		inc r15
 1183 044e 0F5F      		subi r16,lo8(-(1))
 1184 0450 1F4F      		sbci r17,hi8(-(1))
 1185 0452 0894      		sec
 1186 0454 C11C      		adc r12,__zero_reg__
 1187 0456 D11C      		adc r13,__zero_reg__
 1188               	.LM177:
 1189 0458 0031      		cpi r16,16
 1190 045a 1105      		cpc r17,__zero_reg__
 1191 045c 01F4      		brne .L54
 1192 045e 00C0      		rjmp .L60
 1193               	.LVL97:
 1194               	.L55:
 1195               	.LM178:
 1196 0460 80E2      		ldi r24,lo8(32)
 1197 0462 0E94 0000 		call WH1602_SendData
 1198               	.LVL98:
 1199 0466 F394      		inc r15
 1200               	.LVL99:
 1201               	.L60:
 1202 0468 FFE0      		ldi r31,lo8(15)
 1203 046a FF15      		cp r31,r15
 1204 046c 00F4      		brsh .L55
 1205               	/* epilogue start */
 1206               	.LM179:
 1207 046e 6096      		adiw r28,16
 1208 0470 0FB6      		in __tmp_reg__,__SREG__
 1209 0472 F894      		cli
 1210 0474 DEBF      		out __SP_H__,r29
 1211 0476 0FBE      		out __SREG__,__tmp_reg__
 1212 0478 CDBF      		out __SP_L__,r28
 1213 047a CF91      		pop r28
 1214 047c DF91      		pop r29
 1215 047e 1F91      		pop r17
 1216               	.LVL100:
 1217 0480 0F91      		pop r16
 1218 0482 FF90      		pop r15
 1219               	.LVL101:
 1220 0484 DF90      		pop r13
 1221 0486 CF90      		pop r12
 1222 0488 BF90      		pop r11
 1223 048a AF90      		pop r10
 1224 048c 0895      		ret
 1225               	.LFE20:
 1227               	.global	WH1602_SetTextProgmemUpLine
 1229               	WH1602_SetTextProgmemUpLine:
 1230               	.LFB21:
 1231               	.LM180:
 1232               	.LVL102:
 1233 048e AF92      		push r10
 1234 0490 BF92      		push r11
 1235 0492 CF92      		push r12
 1236 0494 DF92      		push r13
 1237 0496 FF92      		push r15
 1238 0498 0F93      		push r16
 1239 049a 1F93      		push r17
 1240 049c DF93      		push r29
 1241 049e CF93      		push r28
 1242 04a0 CDB7      		in r28,__SP_L__
 1243 04a2 DEB7      		in r29,__SP_H__
 1244 04a4 6097      		sbiw r28,16
 1245 04a6 0FB6      		in __tmp_reg__,__SREG__
 1246 04a8 F894      		cli
 1247 04aa DEBF      		out __SP_H__,r29
 1248 04ac 0FBE      		out __SREG__,__tmp_reg__
 1249 04ae CDBF      		out __SP_L__,r28
 1250               	/* prologue: function */
 1251               	/* frame size = 16 */
 1252 04b0 5C01      		movw r10,r24
 1253               	.LM181:
 1254 04b2 80E8      		ldi r24,lo8(-128)
 1255               	.LVL103:
 1256 04b4 0E94 0000 		call WH1602_SendCommand
 1257               	.LBB458:
 1258               	.LBB459:
 1259               	.LBB460:
 1260               	.LBB461:
 1261               	.LBB462:
 1262               	.LBB463:
 1263               	.LM182:
 1264 04b8 80E9      		ldi r24,lo8(400)
 1265 04ba 91E0      		ldi r25,hi8(400)
 1266               	.LVL104:
 1267               	/* #APP */
 1268               	 ;  105 "c:/winavr-20100110/lib/gcc/../../avr/include/util/delay_basic.h" 1
 1269 04bc 0197      		1: sbiw r24,1
 1270 04be 01F4      		brne 1b
 1271               	 ;  0 "" 2
 1272               	/* #NOAPP */
 1273 04c0 9501      		movw r18,r10
 1274 04c2 DE01      		movw r26,r28
 1275 04c4 1196      		adiw r26,1
 1276               	.LBE463:
 1277               	.LBE462:
 1278               	.LBE461:
 1279               	.LBE460:
 1280               	.LBE459:
 1281               	.LBE458:
 1282               	.LM183:
 1283 04c6 BE01      		movw r22,r28
 1284 04c8 6F5E      		subi r22,lo8(-(17))
 1285 04ca 7F4F      		sbci r23,hi8(-(17))
 1286               	.LVL105:
 1287               	.L65:
 1288               	.LBB464:
 1289               	.LBB465:
 1290               	.LM184:
 1291 04cc F901      		movw r30,r18
 1292               	.LVL106:
 1293               	/* #APP */
 1294               	 ;  266 "wh1602.h" 1
 1295 04ce 4491      		lpm r20, Z
 1296               		
 1297               	 ;  0 "" 2
 1298               	/* #NOAPP */
 1299               	.LBE465:
 1300               	.LM185:
 1301 04d0 4C93      		st X,r20
 1302 04d2 80E0      		ldi r24,lo8(0)
 1303 04d4 90E0      		ldi r25,hi8(0)
 1304               	.LVL107:
 1305               	.L64:
 1306               	.LBB466:
 1307               	.LBB467:
 1308               	.LBB468:
 1309               	.LM186:
 1310 04d6 FC01      		movw r30,r24
 1311               	.LVL108:
 1312 04d8 E050      		subi r30,lo8(-(RusCodeTable))
 1313 04da F040      		sbci r31,hi8(-(RusCodeTable))
 1314               	/* #APP */
 1315               	 ;  270 "wh1602.h" 1
 1316 04dc E491      		lpm r30, Z
 1317               		
 1318               	 ;  0 "" 2
 1319               	.LVL109:
 1320               	/* #NOAPP */
 1321               	.LBE468:
 1322               	.LM187:
 1323 04de E417      		cp r30,r20
 1324 04e0 01F4      		brne .L62
 1325               	.LBB469:
 1326               	.LM188:
 1327 04e2 8050      		subi r24,lo8(-(RusCodeTable+1))
 1328 04e4 9040      		sbci r25,hi8(-(RusCodeTable+1))
 1329 04e6 FC01      		movw r30,r24
 1330               	.LVL110:
 1331               	/* #APP */
 1332               	 ;  273 "wh1602.h" 1
 1333 04e8 8491      		lpm r24, Z
 1334               		
 1335               	 ;  0 "" 2
 1336               	.LVL111:
 1337               	/* #NOAPP */
 1338               	.LBE469:
 1339 04ea 8C93      		st X,r24
 1340 04ec 00C0      		rjmp .L63
 1341               	.LVL112:
 1342               	.L62:
 1343               	.LM189:
 1344 04ee 0296      		adiw r24,2
 1345               	.LBE467:
 1346               	.LM190:
 1347 04f0 8438      		cpi r24,132
 1348 04f2 9105      		cpc r25,__zero_reg__
 1349 04f4 01F4      		brne .L64
 1350               	.LVL113:
 1351               	.L63:
 1352 04f6 2F5F      		subi r18,lo8(-(1))
 1353 04f8 3F4F      		sbci r19,hi8(-(1))
 1354 04fa 1196      		adiw r26,1
 1355               	.LBE466:
 1356               	.LBE464:
 1357               	.LM191:
 1358 04fc A617      		cp r26,r22
 1359 04fe B707      		cpc r27,r23
 1360 0500 01F4      		brne .L65
 1361 0502 00E0      		ldi r16,lo8(0)
 1362 0504 10E0      		ldi r17,hi8(0)
 1363               	.LM192:
 1364 0506 6E01      		movw r12,r28
 1365 0508 0894      		sec
 1366 050a C11C      		adc r12,__zero_reg__
 1367 050c D11C      		adc r13,__zero_reg__
 1368               	.LVL114:
 1369               	.L67:
 1370               	.LM193:
 1371 050e F02E      		mov r15,r16
 1372               	.LBB470:
 1373               	.LM194:
 1374 0510 F501      		movw r30,r10
 1375               	.LVL115:
 1376 0512 E00F      		add r30,r16
 1377 0514 F11F      		adc r31,r17
 1378               	/* #APP */
 1379               	 ;  280 "wh1602.h" 1
 1380 0516 E491      		lpm r30, Z
 1381               		
 1382               	 ;  0 "" 2
 1383               	.LVL116:
 1384               	/* #NOAPP */
 1385               	.LBE470:
 1386 0518 EE23      		tst r30
 1387 051a 01F0      		breq .L73
 1388               	.LM195:
 1389 051c F601      		movw r30,r12
 1390               	.LVL117:
 1391 051e E00F      		add r30,r16
 1392 0520 F11F      		adc r31,r17
 1393 0522 8081      		ld r24,Z
 1394               	.LVL118:
 1395 0524 0E94 0000 		call WH1602_SendData
 1396               	.LVL119:
 1397 0528 F394      		inc r15
 1398 052a 0F5F      		subi r16,lo8(-(1))
 1399 052c 1F4F      		sbci r17,hi8(-(1))
 1400               	.LM196:
 1401 052e 0031      		cpi r16,16
 1402 0530 1105      		cpc r17,__zero_reg__
 1403 0532 01F4      		brne .L67
 1404 0534 00C0      		rjmp .L73
 1405               	.LVL120:
 1406               	.L68:
 1407               	.LM197:
 1408 0536 80E2      		ldi r24,lo8(32)
 1409               	.LVL121:
 1410 0538 0E94 0000 		call WH1602_SendData
 1411               	.LVL122:
 1412 053c F394      		inc r15
 1413               	.LVL123:
 1414               	.L73:
 1415 053e FFE0      		ldi r31,lo8(15)
 1416 0540 FF15      		cp r31,r15
 1417 0542 00F4      		brsh .L68
 1418               	/* epilogue start */
 1419               	.LM198:
 1420 0544 6096      		adiw r28,16
 1421 0546 0FB6      		in __tmp_reg__,__SREG__
 1422 0548 F894      		cli
 1423 054a DEBF      		out __SP_H__,r29
 1424 054c 0FBE      		out __SREG__,__tmp_reg__
 1425 054e CDBF      		out __SP_L__,r28
 1426 0550 CF91      		pop r28
 1427 0552 DF91      		pop r29
 1428 0554 1F91      		pop r17
 1429 0556 0F91      		pop r16
 1430 0558 FF90      		pop r15
 1431               	.LVL124:
 1432 055a DF90      		pop r13
 1433 055c CF90      		pop r12
 1434 055e BF90      		pop r11
 1435 0560 AF90      		pop r10
 1436               	.LVL125:
 1437 0562 0895      		ret
 1438               	.LFE21:
 1440               	.global	WH1602_SetTextProgmemDownLine
 1442               	WH1602_SetTextProgmemDownLine:
 1443               	.LFB22:
 1444               	.LM199:
 1445               	.LVL126:
 1446 0564 AF92      		push r10
 1447 0566 BF92      		push r11
 1448 0568 CF92      		push r12
 1449 056a DF92      		push r13
 1450 056c FF92      		push r15
 1451 056e 0F93      		push r16
 1452 0570 1F93      		push r17
 1453 0572 DF93      		push r29
 1454 0574 CF93      		push r28
 1455 0576 CDB7      		in r28,__SP_L__
 1456 0578 DEB7      		in r29,__SP_H__
 1457 057a 6097      		sbiw r28,16
 1458 057c 0FB6      		in __tmp_reg__,__SREG__
 1459 057e F894      		cli
 1460 0580 DEBF      		out __SP_H__,r29
 1461 0582 0FBE      		out __SREG__,__tmp_reg__
 1462 0584 CDBF      		out __SP_L__,r28
 1463               	/* prologue: function */
 1464               	/* frame size = 16 */
 1465 0586 5C01      		movw r10,r24
 1466               	.LM200:
 1467 0588 88EA      		ldi r24,lo8(-88)
 1468               	.LVL127:
 1469 058a 0E94 0000 		call WH1602_SendCommand
 1470               	.LBB471:
 1471               	.LBB472:
 1472               	.LBB473:
 1473               	.LBB474:
 1474               	.LBB475:
 1475               	.LBB476:
 1476               	.LM201:
 1477 058e 80E9      		ldi r24,lo8(400)
 1478 0590 91E0      		ldi r25,hi8(400)
 1479               	.LVL128:
 1480               	/* #APP */
 1481               	 ;  105 "c:/winavr-20100110/lib/gcc/../../avr/include/util/delay_basic.h" 1
 1482 0592 0197      		1: sbiw r24,1
 1483 0594 01F4      		brne 1b
 1484               	 ;  0 "" 2
 1485               	/* #NOAPP */
 1486 0596 9501      		movw r18,r10
 1487 0598 DE01      		movw r26,r28
 1488 059a 1196      		adiw r26,1
 1489               	.LBE476:
 1490               	.LBE475:
 1491               	.LBE474:
 1492               	.LBE473:
 1493               	.LBE472:
 1494               	.LBE471:
 1495               	.LM202:
 1496 059c BE01      		movw r22,r28
 1497 059e 6F5E      		subi r22,lo8(-(17))
 1498 05a0 7F4F      		sbci r23,hi8(-(17))
 1499               	.LVL129:
 1500               	.L78:
 1501               	.LBB477:
 1502               	.LBB478:
 1503               	.LM203:
 1504 05a2 F901      		movw r30,r18
 1505               	.LVL130:
 1506               	/* #APP */
 1507               	 ;  298 "wh1602.h" 1
 1508 05a4 4491      		lpm r20, Z
 1509               		
 1510               	 ;  0 "" 2
 1511               	/* #NOAPP */
 1512               	.LBE478:
 1513               	.LM204:
 1514 05a6 4C93      		st X,r20
 1515 05a8 80E0      		ldi r24,lo8(0)
 1516 05aa 90E0      		ldi r25,hi8(0)
 1517               	.LVL131:
 1518               	.L77:
 1519               	.LBB479:
 1520               	.LBB480:
 1521               	.LBB481:
 1522               	.LM205:
 1523 05ac FC01      		movw r30,r24
 1524               	.LVL132:
 1525 05ae E050      		subi r30,lo8(-(RusCodeTable))
 1526 05b0 F040      		sbci r31,hi8(-(RusCodeTable))
 1527               	/* #APP */
 1528               	 ;  302 "wh1602.h" 1
 1529 05b2 E491      		lpm r30, Z
 1530               		
 1531               	 ;  0 "" 2
 1532               	.LVL133:
 1533               	/* #NOAPP */
 1534               	.LBE481:
 1535               	.LM206:
 1536 05b4 E417      		cp r30,r20
 1537 05b6 01F4      		brne .L75
 1538               	.LBB482:
 1539               	.LM207:
 1540 05b8 8050      		subi r24,lo8(-(RusCodeTable+1))
 1541 05ba 9040      		sbci r25,hi8(-(RusCodeTable+1))
 1542 05bc FC01      		movw r30,r24
 1543               	.LVL134:
 1544               	/* #APP */
 1545               	 ;  305 "wh1602.h" 1
 1546 05be 8491      		lpm r24, Z
 1547               		
 1548               	 ;  0 "" 2
 1549               	.LVL135:
 1550               	/* #NOAPP */
 1551               	.LBE482:
 1552 05c0 8C93      		st X,r24
 1553 05c2 00C0      		rjmp .L76
 1554               	.LVL136:
 1555               	.L75:
 1556               	.LM208:
 1557 05c4 0296      		adiw r24,2
 1558               	.LBE480:
 1559               	.LM209:
 1560 05c6 8438      		cpi r24,132
 1561 05c8 9105      		cpc r25,__zero_reg__
 1562 05ca 01F4      		brne .L77
 1563               	.LVL137:
 1564               	.L76:
 1565 05cc 2F5F      		subi r18,lo8(-(1))
 1566 05ce 3F4F      		sbci r19,hi8(-(1))
 1567 05d0 1196      		adiw r26,1
 1568               	.LBE479:
 1569               	.LBE477:
 1570               	.LM210:
 1571 05d2 A617      		cp r26,r22
 1572 05d4 B707      		cpc r27,r23
 1573 05d6 01F4      		brne .L78
 1574 05d8 00E0      		ldi r16,lo8(0)
 1575 05da 10E0      		ldi r17,hi8(0)
 1576               	.LM211:
 1577 05dc 6E01      		movw r12,r28
 1578 05de 0894      		sec
 1579 05e0 C11C      		adc r12,__zero_reg__
 1580 05e2 D11C      		adc r13,__zero_reg__
 1581               	.LVL138:
 1582               	.L80:
 1583               	.LM212:
 1584 05e4 F02E      		mov r15,r16
 1585               	.LBB483:
 1586               	.LM213:
 1587 05e6 F501      		movw r30,r10
 1588               	.LVL139:
 1589 05e8 E00F      		add r30,r16
 1590 05ea F11F      		adc r31,r17
 1591               	/* #APP */
 1592               	 ;  312 "wh1602.h" 1
 1593 05ec E491      		lpm r30, Z
 1594               		
 1595               	 ;  0 "" 2
 1596               	.LVL140:
 1597               	/* #NOAPP */
 1598               	.LBE483:
 1599 05ee EE23      		tst r30
 1600 05f0 01F0      		breq .L86
 1601               	.LM214:
 1602 05f2 F601      		movw r30,r12
 1603               	.LVL141:
 1604 05f4 E00F      		add r30,r16
 1605 05f6 F11F      		adc r31,r17
 1606 05f8 8081      		ld r24,Z
 1607               	.LVL142:
 1608 05fa 0E94 0000 		call WH1602_SendData
 1609               	.LVL143:
 1610 05fe F394      		inc r15
 1611 0600 0F5F      		subi r16,lo8(-(1))
 1612 0602 1F4F      		sbci r17,hi8(-(1))
 1613               	.LM215:
 1614 0604 0031      		cpi r16,16
 1615 0606 1105      		cpc r17,__zero_reg__
 1616 0608 01F4      		brne .L80
 1617 060a 00C0      		rjmp .L86
 1618               	.LVL144:
 1619               	.L81:
 1620               	.LM216:
 1621 060c 80E2      		ldi r24,lo8(32)
 1622               	.LVL145:
 1623 060e 0E94 0000 		call WH1602_SendData
 1624               	.LVL146:
 1625 0612 F394      		inc r15
 1626               	.LVL147:
 1627               	.L86:
 1628 0614 FFE0      		ldi r31,lo8(15)
 1629 0616 FF15      		cp r31,r15
 1630 0618 00F4      		brsh .L81
 1631               	/* epilogue start */
 1632               	.LM217:
 1633 061a 6096      		adiw r28,16
 1634 061c 0FB6      		in __tmp_reg__,__SREG__
 1635 061e F894      		cli
 1636 0620 DEBF      		out __SP_H__,r29
 1637 0622 0FBE      		out __SREG__,__tmp_reg__
 1638 0624 CDBF      		out __SP_L__,r28
 1639 0626 CF91      		pop r28
 1640 0628 DF91      		pop r29
 1641 062a 1F91      		pop r17
 1642 062c 0F91      		pop r16
 1643 062e FF90      		pop r15
 1644               	.LVL148:
 1645 0630 DF90      		pop r13
 1646 0632 CF90      		pop r12
 1647 0634 BF90      		pop r11
 1648 0636 AF90      		pop r10
 1649               	.LVL149:
 1650 0638 0895      		ret
 1651               	.LFE22:
 1653               	.global	SD_TransmitData
 1655               	SD_TransmitData:
 1656               	.LFB24:
 1657               	.LM218:
 1658               	.LVL150:
 1659               	/* prologue: function */
 1660               	/* frame size = 0 */
 1661               	.LM219:
 1662 063a 8FB9      		out 47-32,r24
 1663               	.L88:
 1664               	.LM220:
 1665 063c 779B      		sbis 46-32,7
 1666 063e 00C0      		rjmp .L88
 1667               	.LM221:
 1668 0640 8FB1      		in r24,47-32
 1669               	.LVL151:
 1670               	.LVL152:
 1671               	/* epilogue start */
 1672               	.LM222:
 1673 0642 0895      		ret
 1674               	.LFE24:
 1676               	.global	SD_SendCommandR1
 1678               	SD_SendCommandR1:
 1679               	.LFB25:
 1680               	.LM223:
 1681               	.LVL153:
 1682 0644 0F93      		push r16
 1683               	.LVL154:
 1684 0646 DF93      		push r29
 1685 0648 CF93      		push r28
 1686 064a 00D0      		rcall .
 1687 064c 00D0      		rcall .
 1688 064e 0F92      		push __tmp_reg__
 1689 0650 CDB7      		in r28,__SP_L__
 1690 0652 DEB7      		in r29,__SP_H__
 1691               	/* prologue: function */
 1692               	/* frame size = 5 */
 1693               	.LM224:
 1694 0654 8983      		std Y+1,r24
 1695 0656 6A83      		std Y+2,r22
 1696 0658 4B83      		std Y+3,r20
 1697 065a 2C83      		std Y+4,r18
 1698 065c 0D83      		std Y+5,r16
 1699               	.LVL155:
 1700 065e FE01      		movw r30,r28
 1701 0660 3196      		adiw r30,1
 1702               	.LBB484:
 1703               	.LM225:
 1704 0662 9E01      		movw r18,r28
 1705               	.LVL156:
 1706 0664 2A5F      		subi r18,lo8(-(6))
 1707 0666 3F4F      		sbci r19,hi8(-(6))
 1708               	.LVL157:
 1709               	.L93:
 1710               	.LM226:
 1711 0668 8081      		ld r24,Z
 1712               	.LVL158:
 1713               	.LBB485:
 1714               	.LBB486:
 1715               	.LM227:
 1716 066a 8FB9      		out 47-32,r24
 1717               	.L92:
 1718               	.LM228:
 1719 066c 779B      		sbis 46-32,7
 1720 066e 00C0      		rjmp .L92
 1721               	.LM229:
 1722 0670 8FB1      		in r24,47-32
 1723               	.LVL159:
 1724 0672 3196      		adiw r30,1
 1725               	.LBE486:
 1726               	.LBE485:
 1727               	.LM230:
 1728 0674 E217      		cp r30,r18
 1729 0676 F307      		cpc r31,r19
 1730 0678 01F4      		brne .L93
 1731               	.LBE484:
 1732               	.LBB487:
 1733               	.LBB488:
 1734               	.LM231:
 1735 067a 85E9      		ldi r24,lo8(-107)
 1736               	.LVL160:
 1737 067c 8FB9      		out 47-32,r24
 1738               	.L94:
 1739               	.LM232:
 1740 067e 779B      		sbis 46-32,7
 1741 0680 00C0      		rjmp .L94
 1742               	.LM233:
 1743 0682 8FB1      		in r24,47-32
 1744               	.LVL161:
 1745 0684 20E0      		ldi r18,lo8(0)
 1746 0686 30E0      		ldi r19,hi8(0)
 1747               	.LVL162:
 1748               	.LBE488:
 1749               	.LBE487:
 1750               	.LBB489:
 1751               	.LBB490:
 1752               	.LBB491:
 1753               	.LBB492:
 1754               	.LM234:
 1755 0688 9FEF      		ldi r25,lo8(-1)
 1756               	.L97:
 1757 068a 9FB9      		out 47-32,r25
 1758               	.L95:
 1759               	.LM235:
 1760 068c 779B      		sbis 46-32,7
 1761 068e 00C0      		rjmp .L95
 1762               	.LM236:
 1763 0690 8FB1      		in r24,47-32
 1764               	.LVL163:
 1765               	.LBE492:
 1766               	.LBE491:
 1767               	.LM237:
 1768 0692 87FF      		sbrs r24,7
 1769 0694 00C0      		rjmp .L96
 1770               	.LBE490:
 1771               	.LM238:
 1772 0696 2F5F      		subi r18,lo8(-(1))
 1773 0698 3F4F      		sbci r19,hi8(-(1))
 1774 069a 8FEF      		ldi r24,hi8(-1)
 1775 069c 2F3F      		cpi r18,lo8(-1)
 1776 069e 3807      		cpc r19,r24
 1777               	.LVL164:
 1778 06a0 01F4      		brne .L97
 1779 06a2 8FEF      		ldi r24,lo8(-1)
 1780               	.LVL165:
 1781               	.L96:
 1782               	.LVL166:
 1783               	/* epilogue start */
 1784               	.LBE489:
 1785               	.LM239:
 1786 06a4 0F90      		pop __tmp_reg__
 1787 06a6 0F90      		pop __tmp_reg__
 1788 06a8 0F90      		pop __tmp_reg__
 1789 06aa 0F90      		pop __tmp_reg__
 1790 06ac 0F90      		pop __tmp_reg__
 1791 06ae CF91      		pop r28
 1792 06b0 DF91      		pop r29
 1793 06b2 0F91      		pop r16
 1794               	.LVL167:
 1795 06b4 0895      		ret
 1796               	.LFE25:
 1798               	.global	GetBits
 1800               	GetBits:
 1801               	.LFB27:
 1802               	.LM240:
 1803               	.LVL168:
 1804 06b6 0F93      		push r16
 1805 06b8 1F93      		push r17
 1806 06ba CF93      		push r28
 1807 06bc DF93      		push r29
 1808               	/* prologue: function */
 1809               	/* frame size = 0 */
 1810 06be EC01      		movw r28,r24
 1811               	.LM241:
 1812 06c0 6F5F      		subi r22,lo8(-(1))
 1813               	.LVL169:
 1814 06c2 641B      		sub r22,r20
 1815 06c4 A0E0      		ldi r26,lo8(0)
 1816 06c6 B0E0      		ldi r27,hi8(0)
 1817               	.LVL170:
 1818 06c8 30E0      		ldi r19,lo8(0)
 1819               	.LVL171:
 1820               	.LBB493:
 1821               	.LBB494:
 1822               	.LM242:
 1823 06ca 0FE0      		ldi r16,lo8(15)
 1824 06cc 10E0      		ldi r17,hi8(15)
 1825 06ce 00C0      		rjmp .L105
 1826               	.LVL172:
 1827               	.L106:
 1828               	.LBE494:
 1829               	.LBE493:
 1830               	.LM243:
 1831 06d0 232F      		mov r18,r19
 1832 06d2 240F      		add r18,r20
 1833               	.LBB496:
 1834               	.LBB495:
 1835               	.LM244:
 1836 06d4 822F      		mov r24,r18
 1837 06d6 8695      		lsr r24
 1838 06d8 8695      		lsr r24
 1839 06da 8695      		lsr r24
 1840 06dc F801      		movw r30,r16
 1841 06de E81B      		sub r30,r24
 1842 06e0 F109      		sbc r31,__zero_reg__
 1843 06e2 EC0F      		add r30,r28
 1844 06e4 FD1F      		adc r31,r29
 1845 06e6 8081      		ld r24,Z
 1846 06e8 90E0      		ldi r25,lo8(0)
 1847 06ea 2770      		andi r18,lo8(7)
 1848 06ec 00C0      		rjmp 2f
 1849 06ee 9595      	1:	asr r25
 1850 06f0 8795      		ror r24
 1851 06f2 2A95      	2:	dec r18
 1852 06f4 02F4      		brpl 1b
 1853 06f6 8170      		andi r24,lo8(1)
 1854 06f8 9070      		andi r25,hi8(1)
 1855 06fa 032E      		mov r0,r19
 1856 06fc 00C0      		rjmp 2f
 1857 06fe 880F      	1:	lsl r24
 1858 0700 991F      		rol r25
 1859 0702 0A94      	2:	dec r0
 1860 0704 02F4      		brpl 1b
 1861 0706 A82B      		or r26,r24
 1862 0708 B92B      		or r27,r25
 1863               	.LBE495:
 1864               	.LM245:
 1865 070a 3F5F      		subi r19,lo8(-(1))
 1866               	.LVL173:
 1867               	.L105:
 1868 070c 3617      		cp r19,r22
 1869 070e 00F0      		brlo .L106
 1870               	.LBE496:
 1871               	.LM246:
 1872 0710 CD01      		movw r24,r26
 1873               	.LVL174:
 1874               	/* epilogue start */
 1875 0712 DF91      		pop r29
 1876 0714 CF91      		pop r28
 1877               	.LVL175:
 1878 0716 1F91      		pop r17
 1879 0718 0F91      		pop r16
 1880 071a 0895      		ret
 1881               	.LFE27:
 1883               	.global	SD_GetSize
 1885               	SD_GetSize:
 1886               	.LFB26:
 1887               	.LM247:
 1888 071c CF92      		push r12
 1889 071e DF92      		push r13
 1890 0720 EF92      		push r14
 1891 0722 FF92      		push r15
 1892 0724 0F93      		push r16
 1893 0726 1F93      		push r17
 1894 0728 DF93      		push r29
 1895 072a CF93      		push r28
 1896 072c CDB7      		in r28,__SP_L__
 1897 072e DEB7      		in r29,__SP_H__
 1898 0730 6097      		sbiw r28,16
 1899 0732 0FB6      		in __tmp_reg__,__SREG__
 1900 0734 F894      		cli
 1901 0736 DEBF      		out __SP_H__,r29
 1902 0738 0FBE      		out __SREG__,__tmp_reg__
 1903 073a CDBF      		out __SP_L__,r28
 1904               	/* prologue: function */
 1905               	/* frame size = 16 */
 1906               	.LM248:
 1907 073c 89E4      		ldi r24,lo8(73)
 1908 073e 60E0      		ldi r22,lo8(0)
 1909 0740 40E0      		ldi r20,lo8(0)
 1910 0742 20E0      		ldi r18,lo8(0)
 1911 0744 00E0      		ldi r16,lo8(0)
 1912 0746 0E94 0000 		call SD_SendCommandR1
 1913 074a 8F3F      		cpi r24,lo8(-1)
 1914 074c 01F4      		brne .+2
 1915 074e 00C0      		rjmp .L109
 1916 0750 20E0      		ldi r18,lo8(0)
 1917 0752 30E0      		ldi r19,hi8(0)
 1918               	.LVL176:
 1919               	.LBB497:
 1920               	.LBB498:
 1921               	.LM249:
 1922 0754 4FEF      		ldi r20,lo8(-1)
 1923               	.LBE498:
 1924               	.LBE497:
 1925               	.LBB500:
 1926               	.LBB501:
 1927               	.LBB502:
 1928               	.LBB503:
 1929               	.LM250:
 1930 0756 95E0      		ldi r25,lo8(5)
 1931               	.L112:
 1932               	.LBE503:
 1933               	.LBE502:
 1934               	.LBE501:
 1935               	.LBE500:
 1936               	.LBB507:
 1937               	.LBB499:
 1938               	.LM251:
 1939 0758 4FB9      		out 47-32,r20
 1940               	.L110:
 1941               	.LM252:
 1942 075a 779B      		sbis 46-32,7
 1943 075c 00C0      		rjmp .L110
 1944               	.LM253:
 1945 075e 8FB1      		in r24,47-32
 1946               	.LVL177:
 1947               	.LBE499:
 1948               	.LBE507:
 1949               	.LM254:
 1950 0760 8E3F      		cpi r24,lo8(-2)
 1951 0762 01F0      		breq .L111
 1952               	.LBB508:
 1953               	.LBB506:
 1954               	.LBB505:
 1955               	.LBB504:
 1956               	.LM255:
 1957 0764 892F      		mov r24,r25
 1958               	.LVL178:
 1959               	/* #APP */
 1960               	 ;  83 "c:/winavr-20100110/lib/gcc/../../avr/include/util/delay_basic.h" 1
 1961 0766 8A95      		1: dec r24
 1962 0768 01F4      		brne 1b
 1963               	 ;  0 "" 2
 1964               	/* #NOAPP */
 1965               	.LBE504:
 1966               	.LBE505:
 1967               	.LBE506:
 1968               	.LBE508:
 1969               	.LM256:
 1970 076a 2F5F      		subi r18,lo8(-(1))
 1971 076c 3F4F      		sbci r19,hi8(-(1))
 1972 076e 8FEF      		ldi r24,hi8(-1)
 1973 0770 2F3F      		cpi r18,lo8(-1)
 1974 0772 3807      		cpc r19,r24
 1975               	.LVL179:
 1976 0774 01F4      		brne .L112
 1977 0776 00C0      		rjmp .L109
 1978               	.LVL180:
 1979               	.L111:
 1980 0778 FE01      		movw r30,r28
 1981 077a 3196      		adiw r30,1
 1982               	.LBB509:
 1983               	.LBB510:
 1984               	.LM257:
 1985 077c 9FEF      		ldi r25,lo8(-1)
 1986               	.LBE510:
 1987               	.LBE509:
 1988               	.LM258:
 1989 077e 9E01      		movw r18,r28
 1990               	.LVL181:
 1991 0780 2F5E      		subi r18,lo8(-(17))
 1992 0782 3F4F      		sbci r19,hi8(-(17))
 1993               	.LVL182:
 1994               	.L114:
 1995               	.LBB512:
 1996               	.LBB511:
 1997               	.LM259:
 1998 0784 9FB9      		out 47-32,r25
 1999               	.L113:
 2000               	.LM260:
 2001 0786 779B      		sbis 46-32,7
 2002 0788 00C0      		rjmp .L113
 2003               	.LM261:
 2004 078a 8FB1      		in r24,47-32
 2005               	.LVL183:
 2006               	.LBE511:
 2007               	.LBE512:
 2008               	.LM262:
 2009 078c 8193      		st Z+,r24
 2010 078e E217      		cp r30,r18
 2011 0790 F307      		cpc r31,r19
 2012 0792 01F4      		brne .L114
 2013 0794 80E0      		ldi r24,lo8(0)
 2014 0796 90E0      		ldi r25,hi8(0)
 2015               	.LVL184:
 2016               	.LBB513:
 2017               	.LBB514:
 2018               	.LM263:
 2019 0798 2FEF      		ldi r18,lo8(-1)
 2020               	.LVL185:
 2021               	.L116:
 2022 079a 2FB9      		out 47-32,r18
 2023               	.L115:
 2024               	.LM264:
 2025 079c 779B      		sbis 46-32,7
 2026 079e 00C0      		rjmp .L115
 2027               	.LM265:
 2028 07a0 3FB1      		in r19,47-32
 2029               	.LBE514:
 2030               	.LBE513:
 2031               	.LM266:
 2032 07a2 0196      		adiw r24,1
 2033 07a4 8F3F      		cpi r24,255
 2034 07a6 9105      		cpc r25,__zero_reg__
 2035 07a8 01F4      		brne .L116
 2036               	.LM267:
 2037 07aa 8E01      		movw r16,r28
 2038 07ac 0F5F      		subi r16,lo8(-(1))
 2039 07ae 1F4F      		sbci r17,hi8(-(1))
 2040 07b0 C801      		movw r24,r16
 2041               	.LVL186:
 2042 07b2 69E4      		ldi r22,lo8(73)
 2043 07b4 4EE3      		ldi r20,lo8(62)
 2044 07b6 0E94 0000 		call GetBits
 2045               	.LVL187:
 2046 07ba 6C01      		movw r12,r24
 2047               	.LM268:
 2048 07bc C801      		movw r24,r16
 2049 07be 61E3      		ldi r22,lo8(49)
 2050 07c0 4FE2      		ldi r20,lo8(47)
 2051 07c2 0E94 0000 		call GetBits
 2052               	.LM269:
 2053 07c6 EE24      		clr r14
 2054 07c8 FF24      		clr r15
 2055               	.LVL188:
 2056 07ca 0894      		sec
 2057 07cc C11C      		adc r12,__zero_reg__
 2058 07ce D11C      		adc r13,__zero_reg__
 2059 07d0 E11C      		adc r14,__zero_reg__
 2060 07d2 F11C      		adc r15,__zero_reg__
 2061               	.LVL189:
 2062 07d4 0296      		adiw r24,2
 2063 07d6 00C0      		rjmp 2f
 2064 07d8 CC0C      	1:	lsl r12
 2065 07da DD1C      		rol r13
 2066 07dc EE1C      		rol r14
 2067 07de FF1C      		rol r15
 2068 07e0 8A95      	2:	dec r24
 2069 07e2 02F4      		brpl 1b
 2070               	.LM270:
 2071 07e4 C801      		movw r24,r16
 2072 07e6 63E5      		ldi r22,lo8(83)
 2073 07e8 40E5      		ldi r20,lo8(80)
 2074 07ea 0E94 0000 		call GetBits
 2075               	.LM271:
 2076 07ee A701      		movw r20,r14
 2077 07f0 9601      		movw r18,r12
 2078 07f2 00C0      		rjmp 2f
 2079 07f4 220F      	1:	lsl r18
 2080 07f6 331F      		rol r19
 2081 07f8 441F      		rol r20
 2082 07fa 551F      		rol r21
 2083 07fc 8A95      	2:	dec r24
 2084 07fe 02F4      		brpl 1b
 2085               	.LVL190:
 2086 0800 00C0      		rjmp .L117
 2087               	.LVL191:
 2088               	.L109:
 2089               	.LM272:
 2090 0802 2FEF      		ldi r18,lo8(65535)
 2091 0804 3FEF      		ldi r19,hi8(65535)
 2092 0806 40E0      		ldi r20,hlo8(65535)
 2093 0808 50E0      		ldi r21,hhi8(65535)
 2094               	.LVL192:
 2095               	.L117:
 2096               	.LM273:
 2097 080a B901      		movw r22,r18
 2098               	.LVL193:
 2099 080c CA01      		movw r24,r20
 2100               	/* epilogue start */
 2101 080e 6096      		adiw r28,16
 2102 0810 0FB6      		in __tmp_reg__,__SREG__
 2103 0812 F894      		cli
 2104 0814 DEBF      		out __SP_H__,r29
 2105 0816 0FBE      		out __SREG__,__tmp_reg__
 2106 0818 CDBF      		out __SP_L__,r28
 2107 081a CF91      		pop r28
 2108 081c DF91      		pop r29
 2109 081e 1F91      		pop r17
 2110 0820 0F91      		pop r16
 2111 0822 FF90      		pop r15
 2112 0824 EF90      		pop r14
 2113               	.LVL194:
 2114 0826 DF90      		pop r13
 2115 0828 CF90      		pop r12
 2116 082a 0895      		ret
 2117               	.LFE26:
 2119               	.global	SD_BeginReadBlock
 2121               	SD_BeginReadBlock:
 2122               	.LFB28:
 2123               	.LM274:
 2124               	.LVL195:
 2125 082c 6F92      		push r6
 2126 082e 7F92      		push r7
 2127 0830 8F92      		push r8
 2128 0832 9F92      		push r9
 2129 0834 AF92      		push r10
 2130 0836 BF92      		push r11
 2131 0838 CF92      		push r12
 2132 083a DF92      		push r13
 2133 083c EF92      		push r14
 2134 083e FF92      		push r15
 2135 0840 0F93      		push r16
 2136 0842 1F93      		push r17
 2137               	/* prologue: function */
 2138               	/* frame size = 0 */
 2139 0844 7B01      		movw r14,r22
 2140 0846 8C01      		movw r16,r24
 2141               	.LM275:
 2142 0848 292F      		mov r18,r25
 2143 084a 3327      		clr r19
 2144 084c 4427      		clr r20
 2145 084e 5527      		clr r21
 2146 0850 5801      		movw r10,r16
 2147 0852 CC24      		clr r12
 2148 0854 DD24      		clr r13
 2149 0856 6F2C      		mov r6,r15
 2150 0858 702E      		mov r7,r16
 2151 085a 812E      		mov r8,r17
 2152 085c 9924      		clr r9
 2153               	.LVL196:
 2154 085e 81E5      		ldi r24,lo8(81)
 2155 0860 622F      		mov r22,r18
 2156 0862 4A2D      		mov r20,r10
 2157 0864 262D      		mov r18,r6
 2158 0866 0E2D      		mov r16,r14
 2159 0868 0E94 0000 		call SD_SendCommandR1
 2160               	.LM276:
 2161 086c 8823      		tst r24
 2162 086e 01F4      		brne .L126
 2163               	.LBB515:
 2164               	.LBB516:
 2165               	.LM277:
 2166 0870 8FEF      		ldi r24,lo8(-1)
 2167 0872 8FB9      		out 47-32,r24
 2168               	.L127:
 2169               	.LM278:
 2170 0874 779B      		sbis 46-32,7
 2171 0876 00C0      		rjmp .L127
 2172               	.LM279:
 2173 0878 8FB1      		in r24,47-32
 2174               	.LVL197:
 2175 087a 20E0      		ldi r18,lo8(0)
 2176 087c 30E0      		ldi r19,hi8(0)
 2177               	.LVL198:
 2178               	.LBE516:
 2179               	.LBE515:
 2180               	.LBB517:
 2181               	.LBB518:
 2182               	.LM280:
 2183 087e 9FEF      		ldi r25,lo8(-1)
 2184               	.L130:
 2185 0880 9FB9      		out 47-32,r25
 2186               	.L128:
 2187               	.LM281:
 2188 0882 779B      		sbis 46-32,7
 2189 0884 00C0      		rjmp .L128
 2190               	.LM282:
 2191 0886 8FB1      		in r24,47-32
 2192               	.LVL199:
 2193               	.LBE518:
 2194               	.LBE517:
 2195               	.LM283:
 2196 0888 8E3F      		cpi r24,lo8(-2)
 2197 088a 01F0      		breq .L129
 2198               	.LM284:
 2199 088c 2F5F      		subi r18,lo8(-(1))
 2200 088e 3F4F      		sbci r19,hi8(-(1))
 2201 0890 8FEF      		ldi r24,hi8(-1)
 2202 0892 2F3F      		cpi r18,lo8(-1)
 2203 0894 3807      		cpc r19,r24
 2204               	.LVL200:
 2205 0896 01F4      		brne .L130
 2206 0898 00C0      		rjmp .L126
 2207               	.LVL201:
 2208               	.L129:
 2209               	.LM285:
 2210 089a 1092 0000 		sts (BlockByteCounter)+1,__zero_reg__
 2211 089e 1092 0000 		sts BlockByteCounter,__zero_reg__
 2212 08a2 81E0      		ldi r24,lo8(1)
 2213               	.LVL202:
 2214 08a4 00C0      		rjmp .L131
 2215               	.L126:
 2216               	.LM286:
 2217 08a6 80E0      		ldi r24,lo8(0)
 2218               	.L131:
 2219               	/* epilogue start */
 2220               	.LM287:
 2221 08a8 1F91      		pop r17
 2222 08aa 0F91      		pop r16
 2223 08ac FF90      		pop r15
 2224 08ae EF90      		pop r14
 2225               	.LVL203:
 2226 08b0 DF90      		pop r13
 2227 08b2 CF90      		pop r12
 2228 08b4 BF90      		pop r11
 2229 08b6 AF90      		pop r10
 2230 08b8 9F90      		pop r9
 2231 08ba 8F90      		pop r8
 2232 08bc 7F90      		pop r7
 2233 08be 6F90      		pop r6
 2234 08c0 0895      		ret
 2235               	.LFE28:
 2237               	.global	SD_ReadBlockByte
 2239               	SD_ReadBlockByte:
 2240               	.LFB29:
 2241               	.LM288:
 2242               	.LVL204:
 2243               	/* prologue: function */
 2244               	/* frame size = 0 */
 2245 08c2 FC01      		movw r30,r24
 2246               	.LM289:
 2247 08c4 8091 0000 		lds r24,BlockByteCounter
 2248 08c8 9091 0000 		lds r25,(BlockByteCounter)+1
 2249               	.LVL205:
 2250 08cc 8050      		subi r24,lo8(512)
 2251 08ce 9240      		sbci r25,hi8(512)
 2252 08d0 00F0      		brlo .L137
 2253 08d2 80E0      		ldi r24,lo8(0)
 2254 08d4 0895      		ret
 2255               	.L137:
 2256               	.LBB519:
 2257               	.LBB520:
 2258               	.LM290:
 2259 08d6 8FEF      		ldi r24,lo8(-1)
 2260 08d8 8FB9      		out 47-32,r24
 2261               	.L139:
 2262               	.LM291:
 2263 08da 779B      		sbis 46-32,7
 2264 08dc 00C0      		rjmp .L139
 2265               	.LM292:
 2266 08de 8FB1      		in r24,47-32
 2267               	.LVL206:
 2268               	.LBE520:
 2269               	.LBE519:
 2270               	.LM293:
 2271 08e0 8083      		st Z,r24
 2272               	.LM294:
 2273 08e2 8091 0000 		lds r24,BlockByteCounter
 2274 08e6 9091 0000 		lds r25,(BlockByteCounter)+1
 2275               	.LVL207:
 2276 08ea 0196      		adiw r24,1
 2277 08ec 9093 0000 		sts (BlockByteCounter)+1,r25
 2278 08f0 8093 0000 		sts BlockByteCounter,r24
 2279               	.LM295:
 2280 08f4 8050      		subi r24,lo8(512)
 2281 08f6 9240      		sbci r25,hi8(512)
 2282 08f8 01F0      		breq .L140
 2283 08fa 81E0      		ldi r24,lo8(1)
 2284 08fc 0895      		ret
 2285               	.L140:
 2286               	.LBB521:
 2287               	.LBB522:
 2288               	.LM296:
 2289 08fe 8FEF      		ldi r24,lo8(-1)
 2290 0900 8FB9      		out 47-32,r24
 2291               	.L141:
 2292               	.LM297:
 2293 0902 779B      		sbis 46-32,7
 2294 0904 00C0      		rjmp .L141
 2295               	.LM298:
 2296 0906 8FB1      		in r24,47-32
 2297               	.LVL208:
 2298               	.LBE522:
 2299               	.LBE521:
 2300               	.LBB523:
 2301               	.LBB524:
 2302               	.LM299:
 2303 0908 8FEF      		ldi r24,lo8(-1)
 2304               	.LVL209:
 2305 090a 8FB9      		out 47-32,r24
 2306               	.L142:
 2307               	.LM300:
 2308 090c 779B      		sbis 46-32,7
 2309 090e 00C0      		rjmp .L142
 2310               	.LM301:
 2311 0910 8FB1      		in r24,47-32
 2312               	.LVL210:
 2313 0912 81E0      		ldi r24,lo8(1)
 2314               	.LVL211:
 2315               	.LBE524:
 2316               	.LBE523:
 2317               	.LM302:
 2318 0914 0895      		ret
 2319               	.LFE29:
 2321               	.global	SD_ReadBlock
 2323               	SD_ReadBlock:
 2324               	.LFB30:
 2325               	.LM303:
 2326               	.LVL212:
 2327 0916 6F92      		push r6
 2328 0918 7F92      		push r7
 2329 091a 8F92      		push r8
 2330 091c 9F92      		push r9
 2331 091e AF92      		push r10
 2332 0920 BF92      		push r11
 2333 0922 CF92      		push r12
 2334 0924 DF92      		push r13
 2335 0926 EF92      		push r14
 2336 0928 FF92      		push r15
 2337 092a 0F93      		push r16
 2338 092c 1F93      		push r17
 2339 092e CF93      		push r28
 2340 0930 DF93      		push r29
 2341               	/* prologue: function */
 2342               	/* frame size = 0 */
 2343 0932 7B01      		movw r14,r22
 2344 0934 8C01      		movw r16,r24
 2345 0936 EA01      		movw r28,r20
 2346               	.LM304:
 2347 0938 292F      		mov r18,r25
 2348 093a 3327      		clr r19
 2349 093c 4427      		clr r20
 2350 093e 5527      		clr r21
 2351 0940 5C01      		movw r10,r24
 2352 0942 CC24      		clr r12
 2353 0944 DD24      		clr r13
 2354 0946 672E      		mov r6,r23
 2355 0948 782E      		mov r7,r24
 2356 094a 892E      		mov r8,r25
 2357 094c 9924      		clr r9
 2358 094e 81E5      		ldi r24,lo8(81)
 2359 0950 622F      		mov r22,r18
 2360               	.LVL213:
 2361 0952 4A2D      		mov r20,r10
 2362               	.LVL214:
 2363 0954 262D      		mov r18,r6
 2364 0956 0E2D      		mov r16,r14
 2365 0958 0E94 0000 		call SD_SendCommandR1
 2366               	.LM305:
 2367 095c 8823      		tst r24
 2368 095e 01F4      		brne .L148
 2369               	.LBB525:
 2370               	.LBB526:
 2371               	.LM306:
 2372 0960 8FEF      		ldi r24,lo8(-1)
 2373 0962 8FB9      		out 47-32,r24
 2374               	.L149:
 2375               	.LM307:
 2376 0964 779B      		sbis 46-32,7
 2377 0966 00C0      		rjmp .L149
 2378               	.LM308:
 2379 0968 8FB1      		in r24,47-32
 2380               	.LVL215:
 2381 096a 20E0      		ldi r18,lo8(0)
 2382 096c 30E0      		ldi r19,hi8(0)
 2383               	.LVL216:
 2384               	.LBE526:
 2385               	.LBE525:
 2386               	.LBB527:
 2387               	.LBB528:
 2388               	.LM309:
 2389 096e 9FEF      		ldi r25,lo8(-1)
 2390               	.L152:
 2391 0970 9FB9      		out 47-32,r25
 2392               	.L150:
 2393               	.LM310:
 2394 0972 779B      		sbis 46-32,7
 2395 0974 00C0      		rjmp .L150
 2396               	.LM311:
 2397 0976 8FB1      		in r24,47-32
 2398               	.LVL217:
 2399               	.LBE528:
 2400               	.LBE527:
 2401               	.LM312:
 2402 0978 8E3F      		cpi r24,lo8(-2)
 2403 097a 01F0      		breq .L151
 2404               	.LM313:
 2405 097c 2F5F      		subi r18,lo8(-(1))
 2406 097e 3F4F      		sbci r19,hi8(-(1))
 2407 0980 8FEF      		ldi r24,hi8(-1)
 2408 0982 2F3F      		cpi r18,lo8(-1)
 2409 0984 3807      		cpc r19,r24
 2410               	.LVL218:
 2411 0986 01F4      		brne .L152
 2412 0988 00C0      		rjmp .L148
 2413               	.LVL219:
 2414               	.L151:
 2415 098a 20E0      		ldi r18,lo8(0)
 2416 098c 30E0      		ldi r19,hi8(0)
 2417               	.LVL220:
 2418               	.LBB529:
 2419               	.LBB530:
 2420               	.LM314:
 2421 098e 9FEF      		ldi r25,lo8(-1)
 2422               	.L155:
 2423 0990 9FB9      		out 47-32,r25
 2424               	.L153:
 2425               	.LM315:
 2426 0992 779B      		sbis 46-32,7
 2427 0994 00C0      		rjmp .L153
 2428               	.LM316:
 2429 0996 8FB1      		in r24,47-32
 2430               	.LVL221:
 2431               	.LBE530:
 2432               	.LBE529:
 2433               	.LM317:
 2434 0998 8883      		st Y,r24
 2435               	.LM318:
 2436 099a 2F5F      		subi r18,lo8(-(1))
 2437 099c 3F4F      		sbci r19,hi8(-(1))
 2438 099e 82E0      		ldi r24,hi8(512)
 2439 09a0 2030      		cpi r18,lo8(512)
 2440 09a2 3807      		cpc r19,r24
 2441               	.LVL222:
 2442 09a4 01F0      		breq .L154
 2443 09a6 2196      		adiw r28,1
 2444 09a8 00C0      		rjmp .L155
 2445               	.L154:
 2446               	.LBB531:
 2447               	.LBB532:
 2448               	.LM319:
 2449 09aa 8FEF      		ldi r24,lo8(-1)
 2450 09ac 8FB9      		out 47-32,r24
 2451               	.L156:
 2452               	.LM320:
 2453 09ae 779B      		sbis 46-32,7
 2454 09b0 00C0      		rjmp .L156
 2455               	.LM321:
 2456 09b2 8FB1      		in r24,47-32
 2457               	.LVL223:
 2458               	.LBE532:
 2459               	.LBE531:
 2460               	.LBB533:
 2461               	.LBB534:
 2462               	.LM322:
 2463 09b4 8FEF      		ldi r24,lo8(-1)
 2464               	.LVL224:
 2465 09b6 8FB9      		out 47-32,r24
 2466               	.L157:
 2467               	.LM323:
 2468 09b8 779B      		sbis 46-32,7
 2469 09ba 00C0      		rjmp .L157
 2470               	.LM324:
 2471 09bc 8FB1      		in r24,47-32
 2472               	.LVL225:
 2473 09be 81E0      		ldi r24,lo8(1)
 2474               	.LVL226:
 2475 09c0 00C0      		rjmp .L158
 2476               	.L148:
 2477               	.LM325:
 2478 09c2 80E0      		ldi r24,lo8(0)
 2479               	.L158:
 2480               	/* epilogue start */
 2481               	.LBE534:
 2482               	.LBE533:
 2483               	.LM326:
 2484 09c4 DF91      		pop r29
 2485 09c6 CF91      		pop r28
 2486               	.LVL227:
 2487 09c8 1F91      		pop r17
 2488 09ca 0F91      		pop r16
 2489 09cc FF90      		pop r15
 2490 09ce EF90      		pop r14
 2491               	.LVL228:
 2492 09d0 DF90      		pop r13
 2493 09d2 CF90      		pop r12
 2494 09d4 BF90      		pop r11
 2495 09d6 AF90      		pop r10
 2496 09d8 9F90      		pop r9
 2497 09da 8F90      		pop r8
 2498 09dc 7F90      		pop r7
 2499 09de 6F90      		pop r6
 2500 09e0 0895      		ret
 2501               	.LFE30:
 2503               	.global	GetByte
 2505               	GetByte:
 2506               	.LFB40:
 2507               	.LM327:
 2508               	.LVL229:
 2509 09e2 EF92      		push r14
 2510 09e4 FF92      		push r15
 2511 09e6 0F93      		push r16
 2512 09e8 1F93      		push r17
 2513               	/* prologue: function */
 2514               	/* frame size = 0 */
 2515 09ea 7B01      		movw r14,r22
 2516 09ec 8C01      		movw r16,r24
 2517               	.LM328:
 2518 09ee 8091 0000 		lds r24,FATOffset
 2519 09f2 9091 0000 		lds r25,(FATOffset)+1
 2520 09f6 A091 0000 		lds r26,(FATOffset)+2
 2521 09fa B091 0000 		lds r27,(FATOffset)+3
 2522 09fe E80E      		add r14,r24
 2523 0a00 F91E      		adc r15,r25
 2524 0a02 0A1F      		adc r16,r26
 2525 0a04 1B1F      		adc r17,r27
 2526               	.LVL230:
 2527               	.LM329:
 2528 0a06 A801      		movw r20,r16
 2529 0a08 9701      		movw r18,r14
 2530               	.LVL231:
 2531 0a0a 89E0      		ldi r24,9
 2532 0a0c 5695      	1:	lsr r21
 2533 0a0e 4795      		ror r20
 2534 0a10 3795      		ror r19
 2535 0a12 2795      		ror r18
 2536 0a14 8A95      		dec r24
 2537 0a16 01F4      		brne 1b
 2538               	.LM330:
 2539 0a18 8091 0000 		lds r24,LastReadSector
 2540 0a1c 9091 0000 		lds r25,(LastReadSector)+1
 2541 0a20 A091 0000 		lds r26,(LastReadSector)+2
 2542 0a24 B091 0000 		lds r27,(LastReadSector)+3
 2543 0a28 2817      		cp r18,r24
 2544 0a2a 3907      		cpc r19,r25
 2545 0a2c 4A07      		cpc r20,r26
 2546 0a2e 5B07      		cpc r21,r27
 2547 0a30 01F0      		breq .L167
 2548               	.LM331:
 2549 0a32 2093 0000 		sts LastReadSector,r18
 2550 0a36 3093 0000 		sts (LastReadSector)+1,r19
 2551 0a3a 4093 0000 		sts (LastReadSector)+2,r20
 2552 0a3e 5093 0000 		sts (LastReadSector)+3,r21
 2553               	.LM332:
 2554 0a42 C801      		movw r24,r16
 2555 0a44 B701      		movw r22,r14
 2556 0a46 6070      		andi r22,lo8(-512)
 2557 0a48 7E7F      		andi r23,hi8(-512)
 2558 0a4a 40E0      		ldi r20,lo8(Sector)
 2559 0a4c 50E0      		ldi r21,hi8(Sector)
 2560 0a4e 0E94 0000 		call SD_ReadBlock
 2561               	.LVL232:
 2562               	.L167:
 2563 0a52 F701      		movw r30,r14
 2564               	.LVL233:
 2565 0a54 F170      		andi r31,hi8(511)
 2566 0a56 E050      		subi r30,lo8(-(Sector))
 2567 0a58 F040      		sbci r31,hi8(-(Sector))
 2568 0a5a 6081      		ld r22,Z
 2569               	.LM333:
 2570 0a5c 70E0      		ldi r23,lo8(0)
 2571 0a5e 80E0      		ldi r24,lo8(0)
 2572 0a60 90E0      		ldi r25,lo8(0)
 2573               	/* epilogue start */
 2574 0a62 1F91      		pop r17
 2575 0a64 0F91      		pop r16
 2576 0a66 FF90      		pop r15
 2577 0a68 EF90      		pop r14
 2578 0a6a 0895      		ret
 2579               	.LFE40:
 2581               	.global	GetShort
 2583               	GetShort:
 2584               	.LFB41:
 2585               	.LM334:
 2586               	.LVL234:
 2587 0a6c AF92      		push r10
 2588 0a6e BF92      		push r11
 2589 0a70 CF92      		push r12
 2590 0a72 DF92      		push r13
 2591 0a74 EF92      		push r14
 2592 0a76 FF92      		push r15
 2593 0a78 0F93      		push r16
 2594 0a7a 1F93      		push r17
 2595               	/* prologue: function */
 2596               	/* frame size = 0 */
 2597 0a7c 5B01      		movw r10,r22
 2598 0a7e 6C01      		movw r12,r24
 2599               	.LM335:
 2600 0a80 6F5F      		subi r22,lo8(-(1))
 2601 0a82 7F4F      		sbci r23,hi8(-(1))
 2602 0a84 8F4F      		sbci r24,hlo8(-(1))
 2603 0a86 9F4F      		sbci r25,hhi8(-(1))
 2604               	.LVL235:
 2605 0a88 0E94 0000 		call GetByte
 2606 0a8c 7B01      		movw r14,r22
 2607 0a8e 8C01      		movw r16,r24
 2608               	.LVL236:
 2609               	.LM336:
 2610 0a90 102F      		mov r17,r16
 2611 0a92 0F2D      		mov r16,r15
 2612 0a94 FE2C      		mov r15,r14
 2613 0a96 EE24      		clr r14
 2614               	.LVL237:
 2615               	.LM337:
 2616 0a98 C601      		movw r24,r12
 2617 0a9a B501      		movw r22,r10
 2618 0a9c 0E94 0000 		call GetByte
 2619 0aa0 9B01      		movw r18,r22
 2620 0aa2 AC01      		movw r20,r24
 2621 0aa4 2E29      		or r18,r14
 2622 0aa6 3F29      		or r19,r15
 2623 0aa8 402B      		or r20,r16
 2624 0aaa 512B      		or r21,r17
 2625               	.LM338:
 2626 0aac B901      		movw r22,r18
 2627 0aae CA01      		movw r24,r20
 2628               	/* epilogue start */
 2629 0ab0 1F91      		pop r17
 2630 0ab2 0F91      		pop r16
 2631 0ab4 FF90      		pop r15
 2632 0ab6 EF90      		pop r14
 2633               	.LVL238:
 2634 0ab8 DF90      		pop r13
 2635 0aba CF90      		pop r12
 2636 0abc BF90      		pop r11
 2637 0abe AF90      		pop r10
 2638               	.LVL239:
 2639 0ac0 0895      		ret
 2640               	.LFE41:
 2642               	.global	FAT_RecordPointerStepReverse
 2644               	FAT_RecordPointerStepReverse:
 2645               	.LFB33:
 2646               	.LM339:
 2647               	.LVL240:
 2648 0ac2 2F92      		push r2
 2649 0ac4 3F92      		push r3
 2650 0ac6 4F92      		push r4
 2651 0ac8 5F92      		push r5
 2652 0aca 6F92      		push r6
 2653 0acc 7F92      		push r7
 2654 0ace 8F92      		push r8
 2655 0ad0 9F92      		push r9
 2656 0ad2 AF92      		push r10
 2657 0ad4 BF92      		push r11
 2658 0ad6 CF92      		push r12
 2659 0ad8 DF92      		push r13
 2660 0ada EF92      		push r14
 2661 0adc FF92      		push r15
 2662 0ade 0F93      		push r16
 2663 0ae0 1F93      		push r17
 2664 0ae2 CF93      		push r28
 2665 0ae4 DF93      		push r29
 2666               	/* prologue: function */
 2667               	/* frame size = 0 */
 2668 0ae6 EC01      		movw r28,r24
 2669               	.LM340:
 2670 0ae8 8C81      		ldd r24,Y+4
 2671 0aea 9D81      		ldd r25,Y+5
 2672 0aec AE81      		ldd r26,Y+6
 2673 0aee BF81      		ldd r27,Y+7
 2674               	.LVL241:
 2675 0af0 8097      		sbiw r24,32
 2676 0af2 A109      		sbc r26,__zero_reg__
 2677 0af4 B109      		sbc r27,__zero_reg__
 2678 0af6 8C83      		std Y+4,r24
 2679 0af8 9D83      		std Y+5,r25
 2680 0afa AE83      		std Y+6,r26
 2681 0afc BF83      		std Y+7,r27
 2682               	.LM341:
 2683 0afe 2889      		ldd r18,Y+16
 2684 0b00 3989      		ldd r19,Y+17
 2685 0b02 4A89      		ldd r20,Y+18
 2686 0b04 5B89      		ldd r21,Y+19
 2687 0b06 8217      		cp r24,r18
 2688 0b08 9307      		cpc r25,r19
 2689 0b0a A407      		cpc r26,r20
 2690 0b0c B507      		cpc r27,r21
 2691 0b0e 00F0      		brlo .+2
 2692 0b10 00C0      		rjmp .L180
 2693               	.L172:
 2694               	.LM342:
 2695 0b12 2881      		ld r18,Y
 2696 0b14 3981      		ldd r19,Y+1
 2697 0b16 4A81      		ldd r20,Y+2
 2698 0b18 5B81      		ldd r21,Y+3
 2699 0b1a 8091 0000 		lds r24,FirstRootFolderAddr
 2700 0b1e 9091 0000 		lds r25,(FirstRootFolderAddr)+1
 2701 0b22 A091 0000 		lds r26,(FirstRootFolderAddr)+2
 2702 0b26 B091 0000 		lds r27,(FirstRootFolderAddr)+3
 2703 0b2a 2817      		cp r18,r24
 2704 0b2c 3907      		cpc r19,r25
 2705 0b2e 4A07      		cpc r20,r26
 2706 0b30 5B07      		cpc r21,r27
 2707 0b32 01F4      		brne .+2
 2708 0b34 00C0      		rjmp .L174
 2709               	.LBB535:
 2710               	.LM343:
 2711 0b36 2884      		ldd r2,Y+8
 2712 0b38 3984      		ldd r3,Y+9
 2713 0b3a 4A84      		ldd r4,Y+10
 2714 0b3c 5B84      		ldd r5,Y+11
 2715               	.LVL242:
 2716               	.L178:
 2717               	.LBB536:
 2718               	.LM344:
 2719 0b3e 8091 0000 		lds r24,FATType
 2720 0b42 8130      		cpi r24,lo8(1)
 2721 0b44 01F0      		breq .L175
 2722 0b46 EE24      		clr r14
 2723 0b48 FF24      		clr r15
 2724 0b4a 8701      		movw r16,r14
 2725               	.LVL243:
 2726 0b4c 00C0      		rjmp .L176
 2727               	.LVL244:
 2728               	.L175:
 2729 0b4e 8201      		movw r16,r4
 2730 0b50 7101      		movw r14,r2
 2731               	.LVL245:
 2732 0b52 EE0C      		lsl r14
 2733 0b54 FF1C      		rol r15
 2734 0b56 001F      		rol r16
 2735 0b58 111F      		rol r17
 2736               	.L176:
 2737               	.LM345:
 2738 0b5a 6091 0000 		lds r22,BytsPerSec
 2739 0b5e 7091 0000 		lds r23,(BytsPerSec)+1
 2740 0b62 8091 0000 		lds r24,(BytsPerSec)+2
 2741 0b66 9091 0000 		lds r25,(BytsPerSec)+3
 2742               	.LVL246:
 2743 0b6a 2091 0000 		lds r18,ResvdSecCnt
 2744 0b6e 3091 0000 		lds r19,(ResvdSecCnt)+1
 2745 0b72 4091 0000 		lds r20,(ResvdSecCnt)+2
 2746 0b76 5091 0000 		lds r21,(ResvdSecCnt)+3
 2747 0b7a 0E94 0000 		call __mulsi3
 2748 0b7e E60E      		add r14,r22
 2749 0b80 F71E      		adc r15,r23
 2750 0b82 081F      		adc r16,r24
 2751 0b84 191F      		adc r17,r25
 2752 0b86 C801      		movw r24,r16
 2753 0b88 B701      		movw r22,r14
 2754 0b8a 0E94 0000 		call GetShort
 2755 0b8e 7B01      		movw r14,r22
 2756 0b90 8C01      		movw r16,r24
 2757               	.LVL247:
 2758               	.LM346:
 2759 0b92 DC01      		movw r26,r24
 2760 0b94 CB01      		movw r24,r22
 2761 0b96 0397      		sbiw r24,3
 2762 0b98 A109      		sbc r26,__zero_reg__
 2763 0b9a B109      		sbc r27,__zero_reg__
 2764 0b9c 855F      		subi r24,lo8(65525)
 2765 0b9e 9F4F      		sbci r25,hi8(65525)
 2766 0ba0 A040      		sbci r26,hlo8(65525)
 2767 0ba2 B040      		sbci r27,hhi8(65525)
 2768 0ba4 00F0      		brlo .+2
 2769 0ba6 00C0      		rjmp .L174
 2770               	.LVL248:
 2771               	.LM347:
 2772 0ba8 8C85      		ldd r24,Y+12
 2773 0baa 9D85      		ldd r25,Y+13
 2774 0bac AE85      		ldd r26,Y+14
 2775 0bae BF85      		ldd r27,Y+15
 2776 0bb0 E816      		cp r14,r24
 2777 0bb2 F906      		cpc r15,r25
 2778 0bb4 0A07      		cpc r16,r26
 2779 0bb6 1B07      		cpc r17,r27
 2780 0bb8 01F0      		breq .L177
 2781               	.LVL249:
 2782 0bba C701      		movw r24,r14
 2783               	.LVL250:
 2784 0bbc D801      		movw r26,r16
 2785 0bbe 1C01      		movw r2,r24
 2786 0bc0 2D01      		movw r4,r26
 2787 0bc2 00C0      		rjmp .L178
 2788               	.LVL251:
 2789               	.L177:
 2790               	.LBE536:
 2791               	.LM348:
 2792 0bc4 D201      		movw r26,r4
 2793 0bc6 C101      		movw r24,r2
 2794 0bc8 0397      		sbiw r24,3
 2795 0bca A109      		sbc r26,__zero_reg__
 2796 0bcc B109      		sbc r27,__zero_reg__
 2797 0bce 855F      		subi r24,lo8(65525)
 2798 0bd0 9F4F      		sbci r25,hi8(65525)
 2799 0bd2 A040      		sbci r26,hlo8(65525)
 2800 0bd4 B040      		sbci r27,hhi8(65525)
 2801 0bd6 00F0      		brlo .+2
 2802 0bd8 00C0      		rjmp .L174
 2803               	.LM349:
 2804 0bda 2C86      		std Y+12,r2
 2805 0bdc 3D86      		std Y+13,r3
 2806 0bde 4E86      		std Y+14,r4
 2807 0be0 5F86      		std Y+15,r5
 2808               	.LM350:
 2809 0be2 6090 0000 		lds r6,SecPerClus
 2810 0be6 7090 0000 		lds r7,(SecPerClus)+1
 2811 0bea 8090 0000 		lds r8,(SecPerClus)+2
 2812 0bee 9090 0000 		lds r9,(SecPerClus)+3
 2813               	.LM351:
 2814 0bf2 A090 0000 		lds r10,BytsPerSec
 2815 0bf6 B090 0000 		lds r11,(BytsPerSec)+1
 2816 0bfa C090 0000 		lds r12,(BytsPerSec)+2
 2817 0bfe D090 0000 		lds r13,(BytsPerSec)+3
 2818 0c02 8EEF      		ldi r24,lo8(-2)
 2819 0c04 9FEF      		ldi r25,hi8(-2)
 2820 0c06 AFEF      		ldi r26,hlo8(-2)
 2821 0c08 BFEF      		ldi r27,hhi8(-2)
 2822 0c0a 280E      		add r2,r24
 2823 0c0c 391E      		adc r3,r25
 2824 0c0e 4A1E      		adc r4,r26
 2825 0c10 5B1E      		adc r5,r27
 2826 0c12 C201      		movw r24,r4
 2827 0c14 B101      		movw r22,r2
 2828 0c16 A401      		movw r20,r8
 2829 0c18 9301      		movw r18,r6
 2830 0c1a 0E94 0000 		call __mulsi3
 2831 0c1e 9B01      		movw r18,r22
 2832 0c20 AC01      		movw r20,r24
 2833 0c22 6091 0000 		lds r22,FirstDataSector
 2834 0c26 7091 0000 		lds r23,(FirstDataSector)+1
 2835 0c2a 8091 0000 		lds r24,(FirstDataSector)+2
 2836 0c2e 9091 0000 		lds r25,(FirstDataSector)+3
 2837 0c32 620F      		add r22,r18
 2838 0c34 731F      		adc r23,r19
 2839 0c36 841F      		adc r24,r20
 2840 0c38 951F      		adc r25,r21
 2841 0c3a A601      		movw r20,r12
 2842 0c3c 9501      		movw r18,r10
 2843 0c3e 0E94 0000 		call __mulsi3
 2844 0c42 7B01      		movw r14,r22
 2845 0c44 8C01      		movw r16,r24
 2846               	.LVL252:
 2847 0c46 688B      		std Y+16,r22
 2848 0c48 798B      		std Y+17,r23
 2849 0c4a 8A8B      		std Y+18,r24
 2850 0c4c 9B8B      		std Y+19,r25
 2851               	.LM352:
 2852 0c4e C601      		movw r24,r12
 2853 0c50 B501      		movw r22,r10
 2854 0c52 A401      		movw r20,r8
 2855 0c54 9301      		movw r18,r6
 2856 0c56 0E94 0000 		call __mulsi3
 2857 0c5a 6E0D      		add r22,r14
 2858 0c5c 7F1D      		adc r23,r15
 2859 0c5e 801F      		adc r24,r16
 2860 0c60 911F      		adc r25,r17
 2861 0c62 6C8B      		std Y+20,r22
 2862 0c64 7D8B      		std Y+21,r23
 2863 0c66 8E8B      		std Y+22,r24
 2864 0c68 9F8B      		std Y+23,r25
 2865               	.LM353:
 2866 0c6a 6052      		subi r22,lo8(-(-32))
 2867 0c6c 7040      		sbci r23,hi8(-(-32))
 2868 0c6e 8040      		sbci r24,hlo8(-(-32))
 2869 0c70 9040      		sbci r25,hhi8(-(-32))
 2870 0c72 6C83      		std Y+4,r22
 2871 0c74 7D83      		std Y+5,r23
 2872 0c76 8E83      		std Y+6,r24
 2873 0c78 9F83      		std Y+7,r25
 2874               	.L180:
 2875 0c7a 81E0      		ldi r24,lo8(1)
 2876 0c7c 00C0      		rjmp .L173
 2877               	.LVL253:
 2878               	.L174:
 2879 0c7e 80E0      		ldi r24,lo8(0)
 2880               	.L173:
 2881               	/* epilogue start */
 2882               	.LBE535:
 2883               	.LM354:
 2884 0c80 DF91      		pop r29
 2885 0c82 CF91      		pop r28
 2886               	.LVL254:
 2887 0c84 1F91      		pop r17
 2888 0c86 0F91      		pop r16
 2889 0c88 FF90      		pop r15
 2890 0c8a EF90      		pop r14
 2891 0c8c DF90      		pop r13
 2892 0c8e CF90      		pop r12
 2893 0c90 BF90      		pop r11
 2894 0c92 AF90      		pop r10
 2895 0c94 9F90      		pop r9
 2896 0c96 8F90      		pop r8
 2897 0c98 7F90      		pop r7
 2898 0c9a 6F90      		pop r6
 2899 0c9c 5F90      		pop r5
 2900 0c9e 4F90      		pop r4
 2901 0ca0 3F90      		pop r3
 2902 0ca2 2F90      		pop r2
 2903               	.LVL255:
 2904 0ca4 0895      		ret
 2905               	.LFE33:
 2907               	.global	FAT_PrevFileSearch
 2909               	FAT_PrevFileSearch:
 2910               	.LFB35:
 2911               	.LM355:
 2912 0ca6 AF92      		push r10
 2913 0ca8 BF92      		push r11
 2914 0caa CF92      		push r12
 2915 0cac DF92      		push r13
 2916 0cae EF92      		push r14
 2917 0cb0 FF92      		push r15
 2918 0cb2 0F93      		push r16
 2919 0cb4 1F93      		push r17
 2920 0cb6 DF93      		push r29
 2921 0cb8 CF93      		push r28
 2922 0cba CDB7      		in r28,__SP_L__
 2923 0cbc DEB7      		in r29,__SP_H__
 2924 0cbe 6897      		sbiw r28,24
 2925 0cc0 0FB6      		in __tmp_reg__,__SREG__
 2926 0cc2 F894      		cli
 2927 0cc4 DEBF      		out __SP_H__,r29
 2928 0cc6 0FBE      		out __SREG__,__tmp_reg__
 2929 0cc8 CDBF      		out __SP_L__,r28
 2930               	/* prologue: function */
 2931               	/* frame size = 24 */
 2932               	.LM356:
 2933 0cca DE01      		movw r26,r28
 2934 0ccc 1196      		adiw r26,1
 2935 0cce E0E0      		ldi r30,lo8(sFATRecordPointer)
 2936 0cd0 F0E0      		ldi r31,hi8(sFATRecordPointer)
 2937 0cd2 88E1      		ldi r24,lo8(24)
 2938               	.L182:
 2939 0cd4 0190      		ld r0,Z+
 2940 0cd6 0D92      		st X+,r0
 2941 0cd8 8150      		subi r24,lo8(-(-1))
 2942 0cda 01F4      		brne .L182
 2943               	.LBB537:
 2944               	.LM357:
 2945 0cdc 5E01      		movw r10,r28
 2946 0cde 0894      		sec
 2947 0ce0 A11C      		adc r10,__zero_reg__
 2948 0ce2 B11C      		adc r11,__zero_reg__
 2949               	.LVL256:
 2950               	.L199:
 2951 0ce4 C501      		movw r24,r10
 2952               	.LVL257:
 2953 0ce6 0E94 0000 		call FAT_RecordPointerStepReverse
 2954               	.LVL258:
 2955 0cea 8823      		tst r24
 2956 0cec 01F4      		brne .+2
 2957 0cee 00C0      		rjmp .L184
 2958 0cf0 CC24      		clr r12
 2959 0cf2 DD24      		clr r13
 2960 0cf4 7601      		movw r14,r12
 2961               	.LVL259:
 2962               	.L188:
 2963               	.LBB540:
 2964               	.LM358:
 2965 0cf6 6D81      		ldd r22,Y+5
 2966 0cf8 7E81      		ldd r23,Y+6
 2967 0cfa 8F81      		ldd r24,Y+7
 2968 0cfc 9885      		ldd r25,Y+8
 2969               	.LVL260:
 2970 0cfe 6C0D      		add r22,r12
 2971 0d00 7D1D      		adc r23,r13
 2972 0d02 8E1D      		adc r24,r14
 2973 0d04 9F1D      		adc r25,r15
 2974 0d06 0E94 0000 		call GetByte
 2975 0d0a 8C2D      		mov r24,r12
 2976               	.LVL261:
 2977               	.LM359:
 2978 0d0c CC20      		tst r12
 2979 0d0e 01F4      		brne .L185
 2980               	.LM360:
 2981 0d10 6032      		cpi r22,lo8(32)
 2982               	.LVL262:
 2983 0d12 01F0      		breq .L199
 2984 0d14 653E      		cpi r22,lo8(-27)
 2985 0d16 01F0      		breq .L199
 2986               	.L185:
 2987               	.LM361:
 2988 0d18 6032      		cpi r22,lo8(32)
 2989 0d1a 00F0      		brlo .L199
 2990               	.LM362:
 2991 0d1c 8130      		cpi r24,lo8(1)
 2992 0d1e 01F4      		brne .L187
 2993               	.LBB541:
 2994               	.LM363:
 2995 0d20 6D81      		ldd r22,Y+5
 2996 0d22 7E81      		ldd r23,Y+6
 2997 0d24 8F81      		ldd r24,Y+7
 2998 0d26 9885      		ldd r25,Y+8
 2999               	.LVL263:
 3000 0d28 0E94 0000 		call GetByte
 3001               	.LVL264:
 3002 0d2c 162F      		mov r17,r22
 3003               	.LM364:
 3004 0d2e 6D81      		ldd r22,Y+5
 3005 0d30 7E81      		ldd r23,Y+6
 3006 0d32 8F81      		ldd r24,Y+7
 3007 0d34 9885      		ldd r25,Y+8
 3008 0d36 6F5F      		subi r22,lo8(-(1))
 3009 0d38 7F4F      		sbci r23,hi8(-(1))
 3010 0d3a 8F4F      		sbci r24,hlo8(-(1))
 3011 0d3c 9F4F      		sbci r25,hhi8(-(1))
 3012 0d3e 0E94 0000 		call GetByte
 3013               	.LM365:
 3014 0d42 1E32      		cpi r17,lo8(46)
 3015 0d44 01F4      		brne .L187
 3016 0d46 6E32      		cpi r22,lo8(46)
 3017 0d48 01F4      		brne .L199
 3018               	.LVL265:
 3019               	.L187:
 3020 0d4a 0894      		sec
 3021 0d4c C11C      		adc r12,__zero_reg__
 3022 0d4e D11C      		adc r13,__zero_reg__
 3023 0d50 E11C      		adc r14,__zero_reg__
 3024 0d52 F11C      		adc r15,__zero_reg__
 3025               	.LBE541:
 3026               	.LBE540:
 3027               	.LM366:
 3028 0d54 8BE0      		ldi r24,lo8(11)
 3029 0d56 C816      		cp r12,r24
 3030 0d58 D104      		cpc r13,__zero_reg__
 3031 0d5a E104      		cpc r14,__zero_reg__
 3032 0d5c F104      		cpc r15,__zero_reg__
 3033               	.LVL266:
 3034 0d5e 01F4      		brne .L188
 3035 0d60 00C0      		rjmp .L201
 3036               	.LVL267:
 3037               	.L191:
 3038               	.LBB538:
 3039               	.LBB539:
 3040               	.LM367:
 3041 0d62 6D81      		ldd r22,Y+5
 3042 0d64 7E81      		ldd r23,Y+6
 3043 0d66 8F81      		ldd r24,Y+7
 3044 0d68 9885      		ldd r25,Y+8
 3045 0d6a 665F      		subi r22,lo8(-(10))
 3046 0d6c 7F4F      		sbci r23,hi8(-(10))
 3047 0d6e 8F4F      		sbci r24,hlo8(-(10))
 3048 0d70 9F4F      		sbci r25,hhi8(-(10))
 3049 0d72 0E94 0000 		call GetByte
 3050 0d76 162F      		mov r17,r22
 3051               	.LM368:
 3052 0d78 6D81      		ldd r22,Y+5
 3053 0d7a 7E81      		ldd r23,Y+6
 3054 0d7c 8F81      		ldd r24,Y+7
 3055 0d7e 9885      		ldd r25,Y+8
 3056 0d80 675F      		subi r22,lo8(-(9))
 3057 0d82 7F4F      		sbci r23,hi8(-(9))
 3058 0d84 8F4F      		sbci r24,hlo8(-(9))
 3059 0d86 9F4F      		sbci r25,hhi8(-(9))
 3060 0d88 0E94 0000 		call GetByte
 3061 0d8c 062F      		mov r16,r22
 3062               	.LM369:
 3063 0d8e 6D81      		ldd r22,Y+5
 3064 0d90 7E81      		ldd r23,Y+6
 3065 0d92 8F81      		ldd r24,Y+7
 3066 0d94 9885      		ldd r25,Y+8
 3067 0d96 685F      		subi r22,lo8(-(8))
 3068 0d98 7F4F      		sbci r23,hi8(-(8))
 3069 0d9a 8F4F      		sbci r24,hlo8(-(8))
 3070 0d9c 9F4F      		sbci r25,hhi8(-(8))
 3071 0d9e 0E94 0000 		call GetByte
 3072               	.LM370:
 3073 0da2 1035      		cpi r17,lo8(80)
 3074 0da4 01F0      		breq .+2
 3075 0da6 00C0      		rjmp .L199
 3076 0da8 0134      		cpi r16,lo8(65)
 3077 0daa 01F0      		breq .+2
 3078 0dac 00C0      		rjmp .L199
 3079 0dae 6435      		cpi r22,lo8(84)
 3080 0db0 01F0      		breq .+2
 3081 0db2 00C0      		rjmp .L199
 3082               	.L192:
 3083               	.LBE539:
 3084               	.LM371:
 3085 0db4 A0E0      		ldi r26,lo8(sFATRecordPointer)
 3086 0db6 B0E0      		ldi r27,hi8(sFATRecordPointer)
 3087 0db8 FE01      		movw r30,r28
 3088 0dba 3196      		adiw r30,1
 3089 0dbc 88E1      		ldi r24,lo8(24)
 3090               	.L190:
 3091 0dbe 0190      		ld r0,Z+
 3092 0dc0 0D92      		st X+,r0
 3093 0dc2 8150      		subi r24,lo8(-(-1))
 3094 0dc4 01F4      		brne .L190
 3095 0dc6 81E0      		ldi r24,lo8(1)
 3096               	.L184:
 3097               	/* epilogue start */
 3098               	.LBE538:
 3099               	.LBE537:
 3100               	.LM372:
 3101 0dc8 6896      		adiw r28,24
 3102 0dca 0FB6      		in __tmp_reg__,__SREG__
 3103 0dcc F894      		cli
 3104 0dce DEBF      		out __SP_H__,r29
 3105 0dd0 0FBE      		out __SREG__,__tmp_reg__
 3106 0dd2 CDBF      		out __SP_L__,r28
 3107 0dd4 CF91      		pop r28
 3108 0dd6 DF91      		pop r29
 3109 0dd8 1F91      		pop r17
 3110 0dda 0F91      		pop r16
 3111 0ddc FF90      		pop r15
 3112 0dde EF90      		pop r14
 3113 0de0 DF90      		pop r13
 3114 0de2 CF90      		pop r12
 3115 0de4 BF90      		pop r11
 3116 0de6 AF90      		pop r10
 3117 0de8 0895      		ret
 3118               	.LVL268:
 3119               	.L201:
 3120               	.LBB543:
 3121               	.LBB542:
 3122               	.LM373:
 3123 0dea 6D81      		ldd r22,Y+5
 3124 0dec 7E81      		ldd r23,Y+6
 3125 0dee 8F81      		ldd r24,Y+7
 3126 0df0 9885      		ldd r25,Y+8
 3127               	.LVL269:
 3128 0df2 655F      		subi r22,lo8(-(11))
 3129 0df4 7F4F      		sbci r23,hi8(-(11))
 3130 0df6 8F4F      		sbci r24,hlo8(-(11))
 3131 0df8 9F4F      		sbci r25,hhi8(-(11))
 3132 0dfa 0E94 0000 		call GetByte
 3133               	.LM374:
 3134 0dfe 64FF      		sbrs r22,4
 3135 0e00 00C0      		rjmp .L191
 3136 0e02 00C0      		rjmp .L192
 3137               	.LBE542:
 3138               	.LBE543:
 3139               	.LFE35:
 3141               	.global	FAT_RecordPointerStepForward
 3143               	FAT_RecordPointerStepForward:
 3144               	.LFB32:
 3145               	.LM375:
 3146               	.LVL270:
 3147 0e04 6F92      		push r6
 3148 0e06 7F92      		push r7
 3149 0e08 8F92      		push r8
 3150 0e0a 9F92      		push r9
 3151 0e0c AF92      		push r10
 3152 0e0e BF92      		push r11
 3153 0e10 CF92      		push r12
 3154 0e12 DF92      		push r13
 3155 0e14 EF92      		push r14
 3156 0e16 FF92      		push r15
 3157 0e18 0F93      		push r16
 3158 0e1a 1F93      		push r17
 3159 0e1c CF93      		push r28
 3160 0e1e DF93      		push r29
 3161               	/* prologue: function */
 3162               	/* frame size = 0 */
 3163 0e20 EC01      		movw r28,r24
 3164               	.LM376:
 3165 0e22 8C81      		ldd r24,Y+4
 3166 0e24 9D81      		ldd r25,Y+5
 3167 0e26 AE81      		ldd r26,Y+6
 3168 0e28 BF81      		ldd r27,Y+7
 3169               	.LVL271:
 3170 0e2a 8096      		adiw r24,32
 3171 0e2c A11D      		adc r26,__zero_reg__
 3172 0e2e B11D      		adc r27,__zero_reg__
 3173 0e30 8C83      		std Y+4,r24
 3174 0e32 9D83      		std Y+5,r25
 3175 0e34 AE83      		std Y+6,r26
 3176 0e36 BF83      		std Y+7,r27
 3177               	.LM377:
 3178 0e38 2C89      		ldd r18,Y+20
 3179 0e3a 3D89      		ldd r19,Y+21
 3180 0e3c 4E89      		ldd r20,Y+22
 3181 0e3e 5F89      		ldd r21,Y+23
 3182 0e40 8217      		cp r24,r18
 3183 0e42 9307      		cpc r25,r19
 3184 0e44 A407      		cpc r26,r20
 3185 0e46 B507      		cpc r27,r21
 3186 0e48 00F4      		brsh .+2
 3187 0e4a 00C0      		rjmp .L209
 3188               	.L203:
 3189               	.LM378:
 3190 0e4c 2881      		ld r18,Y
 3191 0e4e 3981      		ldd r19,Y+1
 3192 0e50 4A81      		ldd r20,Y+2
 3193 0e52 5B81      		ldd r21,Y+3
 3194 0e54 8091 0000 		lds r24,FirstRootFolderAddr
 3195 0e58 9091 0000 		lds r25,(FirstRootFolderAddr)+1
 3196 0e5c A091 0000 		lds r26,(FirstRootFolderAddr)+2
 3197 0e60 B091 0000 		lds r27,(FirstRootFolderAddr)+3
 3198 0e64 2817      		cp r18,r24
 3199 0e66 3907      		cpc r19,r25
 3200 0e68 4A07      		cpc r20,r26
 3201 0e6a 5B07      		cpc r21,r27
 3202 0e6c 01F4      		brne .+2
 3203 0e6e 00C0      		rjmp .L205
 3204               	.LBB544:
 3205               	.LM379:
 3206 0e70 E091 0000 		lds r30,FATType
 3207 0e74 E130      		cpi r30,lo8(1)
 3208 0e76 01F0      		breq .L206
 3209 0e78 EE24      		clr r14
 3210 0e7a FF24      		clr r15
 3211 0e7c 8701      		movw r16,r14
 3212               	.LVL272:
 3213 0e7e 00C0      		rjmp .L207
 3214               	.LVL273:
 3215               	.L206:
 3216 0e80 EC84      		ldd r14,Y+12
 3217 0e82 FD84      		ldd r15,Y+13
 3218 0e84 0E85      		ldd r16,Y+14
 3219 0e86 1F85      		ldd r17,Y+15
 3220               	.LVL274:
 3221 0e88 EE0C      		lsl r14
 3222 0e8a FF1C      		rol r15
 3223 0e8c 001F      		rol r16
 3224 0e8e 111F      		rol r17
 3225               	.L207:
 3226               	.LM380:
 3227 0e90 2091 0000 		lds r18,ResvdSecCnt
 3228 0e94 3091 0000 		lds r19,(ResvdSecCnt)+1
 3229 0e98 4091 0000 		lds r20,(ResvdSecCnt)+2
 3230 0e9c 5091 0000 		lds r21,(ResvdSecCnt)+3
 3231 0ea0 6091 0000 		lds r22,BytsPerSec
 3232 0ea4 7091 0000 		lds r23,(BytsPerSec)+1
 3233 0ea8 8091 0000 		lds r24,(BytsPerSec)+2
 3234 0eac 9091 0000 		lds r25,(BytsPerSec)+3
 3235               	.LM381:
 3236 0eb0 E130      		cpi r30,lo8(1)
 3237 0eb2 01F0      		breq .+2
 3238 0eb4 00C0      		rjmp .L205
 3239 0eb6 0E94 0000 		call __mulsi3
 3240 0eba E60E      		add r14,r22
 3241 0ebc F71E      		adc r15,r23
 3242 0ebe 081F      		adc r16,r24
 3243 0ec0 191F      		adc r17,r25
 3244 0ec2 C801      		movw r24,r16
 3245 0ec4 B701      		movw r22,r14
 3246 0ec6 0E94 0000 		call GetShort
 3247 0eca 9B01      		movw r18,r22
 3248 0ecc AC01      		movw r20,r24
 3249               	.LVL275:
 3250               	.LM382:
 3251 0ece 6115      		cp r22,__zero_reg__
 3252 0ed0 7105      		cpc r23,__zero_reg__
 3253 0ed2 8105      		cpc r24,__zero_reg__
 3254 0ed4 9105      		cpc r25,__zero_reg__
 3255 0ed6 01F4      		brne .+2
 3256 0ed8 00C0      		rjmp .L205
 3257               	.LVL276:
 3258 0eda 8091 0000 		lds r24,CountofClusters
 3259 0ede 9091 0000 		lds r25,(CountofClusters)+1
 3260 0ee2 A091 0000 		lds r26,(CountofClusters)+2
 3261 0ee6 B091 0000 		lds r27,(CountofClusters)+3
 3262 0eea 0296      		adiw r24,2
 3263 0eec A11D      		adc r26,__zero_reg__
 3264 0eee B11D      		adc r27,__zero_reg__
 3265 0ef0 2817      		cp r18,r24
 3266 0ef2 3907      		cpc r19,r25
 3267 0ef4 4A07      		cpc r20,r26
 3268 0ef6 5B07      		cpc r21,r27
 3269 0ef8 00F0      		brlo .+2
 3270 0efa 00C0      		rjmp .L205
 3271               	.LVL277:
 3272 0efc 283F      		cpi r18,lo8(65528)
 3273 0efe 8FEF      		ldi r24,hi8(65528)
 3274 0f00 3807      		cpc r19,r24
 3275 0f02 80E0      		ldi r24,hlo8(65528)
 3276 0f04 4807      		cpc r20,r24
 3277 0f06 80E0      		ldi r24,hhi8(65528)
 3278 0f08 5807      		cpc r21,r24
 3279 0f0a 00F0      		brlo .+2
 3280 0f0c 00C0      		rjmp .L205
 3281               	.LM383:
 3282 0f0e 2C87      		std Y+12,r18
 3283 0f10 3D87      		std Y+13,r19
 3284 0f12 4E87      		std Y+14,r20
 3285 0f14 5F87      		std Y+15,r21
 3286               	.LM384:
 3287 0f16 6090 0000 		lds r6,SecPerClus
 3288 0f1a 7090 0000 		lds r7,(SecPerClus)+1
 3289 0f1e 8090 0000 		lds r8,(SecPerClus)+2
 3290 0f22 9090 0000 		lds r9,(SecPerClus)+3
 3291               	.LM385:
 3292 0f26 A090 0000 		lds r10,BytsPerSec
 3293 0f2a B090 0000 		lds r11,(BytsPerSec)+1
 3294 0f2e C090 0000 		lds r12,(BytsPerSec)+2
 3295 0f32 D090 0000 		lds r13,(BytsPerSec)+3
 3296 0f36 2250      		subi r18,lo8(-(-2))
 3297 0f38 3040      		sbci r19,hi8(-(-2))
 3298 0f3a 4040      		sbci r20,hlo8(-(-2))
 3299 0f3c 5040      		sbci r21,hhi8(-(-2))
 3300 0f3e CA01      		movw r24,r20
 3301 0f40 B901      		movw r22,r18
 3302 0f42 A401      		movw r20,r8
 3303 0f44 9301      		movw r18,r6
 3304               	.LVL278:
 3305 0f46 0E94 0000 		call __mulsi3
 3306 0f4a 9B01      		movw r18,r22
 3307 0f4c AC01      		movw r20,r24
 3308 0f4e 6091 0000 		lds r22,FirstDataSector
 3309 0f52 7091 0000 		lds r23,(FirstDataSector)+1
 3310 0f56 8091 0000 		lds r24,(FirstDataSector)+2
 3311 0f5a 9091 0000 		lds r25,(FirstDataSector)+3
 3312 0f5e 620F      		add r22,r18
 3313 0f60 731F      		adc r23,r19
 3314 0f62 841F      		adc r24,r20
 3315 0f64 951F      		adc r25,r21
 3316 0f66 A601      		movw r20,r12
 3317 0f68 9501      		movw r18,r10
 3318 0f6a 0E94 0000 		call __mulsi3
 3319 0f6e 7B01      		movw r14,r22
 3320 0f70 8C01      		movw r16,r24
 3321               	.LVL279:
 3322 0f72 6C83      		std Y+4,r22
 3323 0f74 7D83      		std Y+5,r23
 3324 0f76 8E83      		std Y+6,r24
 3325 0f78 9F83      		std Y+7,r25
 3326               	.LM386:
 3327 0f7a 688B      		std Y+16,r22
 3328 0f7c 798B      		std Y+17,r23
 3329 0f7e 8A8B      		std Y+18,r24
 3330 0f80 9B8B      		std Y+19,r25
 3331               	.LM387:
 3332 0f82 C601      		movw r24,r12
 3333 0f84 B501      		movw r22,r10
 3334 0f86 A401      		movw r20,r8
 3335 0f88 9301      		movw r18,r6
 3336 0f8a 0E94 0000 		call __mulsi3
 3337 0f8e 6E0D      		add r22,r14
 3338 0f90 7F1D      		adc r23,r15
 3339 0f92 801F      		adc r24,r16
 3340 0f94 911F      		adc r25,r17
 3341 0f96 6C8B      		std Y+20,r22
 3342 0f98 7D8B      		std Y+21,r23
 3343 0f9a 8E8B      		std Y+22,r24
 3344 0f9c 9F8B      		std Y+23,r25
 3345               	.L209:
 3346 0f9e 81E0      		ldi r24,lo8(1)
 3347 0fa0 00C0      		rjmp .L204
 3348               	.LVL280:
 3349               	.L205:
 3350 0fa2 80E0      		ldi r24,lo8(0)
 3351               	.L204:
 3352               	/* epilogue start */
 3353               	.LBE544:
 3354               	.LM388:
 3355 0fa4 DF91      		pop r29
 3356 0fa6 CF91      		pop r28
 3357               	.LVL281:
 3358 0fa8 1F91      		pop r17
 3359 0faa 0F91      		pop r16
 3360 0fac FF90      		pop r15
 3361 0fae EF90      		pop r14
 3362               	.LVL282:
 3363 0fb0 DF90      		pop r13
 3364 0fb2 CF90      		pop r12
 3365 0fb4 BF90      		pop r11
 3366 0fb6 AF90      		pop r10
 3367 0fb8 9F90      		pop r9
 3368 0fba 8F90      		pop r8
 3369 0fbc 7F90      		pop r7
 3370 0fbe 6F90      		pop r6
 3371 0fc0 0895      		ret
 3372               	.LFE32:
 3374               	.global	FAT_NextFileSearch
 3376               	FAT_NextFileSearch:
 3377               	.LFB36:
 3378               	.LM389:
 3379 0fc2 AF92      		push r10
 3380 0fc4 BF92      		push r11
 3381 0fc6 CF92      		push r12
 3382 0fc8 DF92      		push r13
 3383 0fca EF92      		push r14
 3384 0fcc FF92      		push r15
 3385 0fce 0F93      		push r16
 3386 0fd0 1F93      		push r17
 3387 0fd2 DF93      		push r29
 3388 0fd4 CF93      		push r28
 3389 0fd6 CDB7      		in r28,__SP_L__
 3390 0fd8 DEB7      		in r29,__SP_H__
 3391 0fda 6897      		sbiw r28,24
 3392 0fdc 0FB6      		in __tmp_reg__,__SREG__
 3393 0fde F894      		cli
 3394 0fe0 DEBF      		out __SP_H__,r29
 3395 0fe2 0FBE      		out __SREG__,__tmp_reg__
 3396 0fe4 CDBF      		out __SP_L__,r28
 3397               	/* prologue: function */
 3398               	/* frame size = 24 */
 3399               	.LM390:
 3400 0fe6 DE01      		movw r26,r28
 3401 0fe8 1196      		adiw r26,1
 3402 0fea E0E0      		ldi r30,lo8(sFATRecordPointer)
 3403 0fec F0E0      		ldi r31,hi8(sFATRecordPointer)
 3404 0fee 88E1      		ldi r24,lo8(24)
 3405               	.L211:
 3406 0ff0 0190      		ld r0,Z+
 3407 0ff2 0D92      		st X+,r0
 3408 0ff4 8150      		subi r24,lo8(-(-1))
 3409 0ff6 01F4      		brne .L211
 3410               	.LBB545:
 3411               	.LM391:
 3412 0ff8 5E01      		movw r10,r28
 3413 0ffa 0894      		sec
 3414 0ffc A11C      		adc r10,__zero_reg__
 3415 0ffe B11C      		adc r11,__zero_reg__
 3416               	.LVL283:
 3417               	.L228:
 3418 1000 C501      		movw r24,r10
 3419               	.LVL284:
 3420 1002 0E94 0000 		call FAT_RecordPointerStepForward
 3421               	.LVL285:
 3422 1006 8823      		tst r24
 3423 1008 01F4      		brne .+2
 3424 100a 00C0      		rjmp .L213
 3425 100c CC24      		clr r12
 3426 100e DD24      		clr r13
 3427 1010 7601      		movw r14,r12
 3428               	.LVL286:
 3429               	.L217:
 3430               	.LBB548:
 3431               	.LM392:
 3432 1012 6D81      		ldd r22,Y+5
 3433 1014 7E81      		ldd r23,Y+6
 3434 1016 8F81      		ldd r24,Y+7
 3435 1018 9885      		ldd r25,Y+8
 3436               	.LVL287:
 3437 101a 6C0D      		add r22,r12
 3438 101c 7D1D      		adc r23,r13
 3439 101e 8E1D      		adc r24,r14
 3440 1020 9F1D      		adc r25,r15
 3441 1022 0E94 0000 		call GetByte
 3442 1026 8C2D      		mov r24,r12
 3443               	.LVL288:
 3444               	.LM393:
 3445 1028 CC20      		tst r12
 3446 102a 01F4      		brne .L214
 3447               	.LM394:
 3448 102c 6032      		cpi r22,lo8(32)
 3449               	.LVL289:
 3450 102e 01F0      		breq .L228
 3451 1030 653E      		cpi r22,lo8(-27)
 3452 1032 01F0      		breq .L228
 3453               	.L214:
 3454               	.LM395:
 3455 1034 6032      		cpi r22,lo8(32)
 3456 1036 00F0      		brlo .L228
 3457               	.LM396:
 3458 1038 8130      		cpi r24,lo8(1)
 3459 103a 01F4      		brne .L216
 3460               	.LBB549:
 3461               	.LM397:
 3462 103c 6D81      		ldd r22,Y+5
 3463 103e 7E81      		ldd r23,Y+6
 3464 1040 8F81      		ldd r24,Y+7
 3465 1042 9885      		ldd r25,Y+8
 3466               	.LVL290:
 3467 1044 0E94 0000 		call GetByte
 3468               	.LVL291:
 3469 1048 162F      		mov r17,r22
 3470               	.LM398:
 3471 104a 6D81      		ldd r22,Y+5
 3472 104c 7E81      		ldd r23,Y+6
 3473 104e 8F81      		ldd r24,Y+7
 3474 1050 9885      		ldd r25,Y+8
 3475 1052 6F5F      		subi r22,lo8(-(1))
 3476 1054 7F4F      		sbci r23,hi8(-(1))
 3477 1056 8F4F      		sbci r24,hlo8(-(1))
 3478 1058 9F4F      		sbci r25,hhi8(-(1))
 3479 105a 0E94 0000 		call GetByte
 3480               	.LM399:
 3481 105e 1E32      		cpi r17,lo8(46)
 3482 1060 01F4      		brne .L216
 3483 1062 6E32      		cpi r22,lo8(46)
 3484 1064 01F4      		brne .L228
 3485               	.LVL292:
 3486               	.L216:
 3487 1066 0894      		sec
 3488 1068 C11C      		adc r12,__zero_reg__
 3489 106a D11C      		adc r13,__zero_reg__
 3490 106c E11C      		adc r14,__zero_reg__
 3491 106e F11C      		adc r15,__zero_reg__
 3492               	.LBE549:
 3493               	.LBE548:
 3494               	.LM400:
 3495 1070 8BE0      		ldi r24,lo8(11)
 3496 1072 C816      		cp r12,r24
 3497 1074 D104      		cpc r13,__zero_reg__
 3498 1076 E104      		cpc r14,__zero_reg__
 3499 1078 F104      		cpc r15,__zero_reg__
 3500               	.LVL293:
 3501 107a 01F4      		brne .L217
 3502 107c 00C0      		rjmp .L230
 3503               	.LVL294:
 3504               	.L220:
 3505               	.LBB546:
 3506               	.LBB547:
 3507               	.LM401:
 3508 107e 6D81      		ldd r22,Y+5
 3509 1080 7E81      		ldd r23,Y+6
 3510 1082 8F81      		ldd r24,Y+7
 3511 1084 9885      		ldd r25,Y+8
 3512 1086 665F      		subi r22,lo8(-(10))
 3513 1088 7F4F      		sbci r23,hi8(-(10))
 3514 108a 8F4F      		sbci r24,hlo8(-(10))
 3515 108c 9F4F      		sbci r25,hhi8(-(10))
 3516 108e 0E94 0000 		call GetByte
 3517 1092 162F      		mov r17,r22
 3518               	.LM402:
 3519 1094 6D81      		ldd r22,Y+5
 3520 1096 7E81      		ldd r23,Y+6
 3521 1098 8F81      		ldd r24,Y+7
 3522 109a 9885      		ldd r25,Y+8
 3523 109c 675F      		subi r22,lo8(-(9))
 3524 109e 7F4F      		sbci r23,hi8(-(9))
 3525 10a0 8F4F      		sbci r24,hlo8(-(9))
 3526 10a2 9F4F      		sbci r25,hhi8(-(9))
 3527 10a4 0E94 0000 		call GetByte
 3528 10a8 062F      		mov r16,r22
 3529               	.LM403:
 3530 10aa 6D81      		ldd r22,Y+5
 3531 10ac 7E81      		ldd r23,Y+6
 3532 10ae 8F81      		ldd r24,Y+7
 3533 10b0 9885      		ldd r25,Y+8
 3534 10b2 685F      		subi r22,lo8(-(8))
 3535 10b4 7F4F      		sbci r23,hi8(-(8))
 3536 10b6 8F4F      		sbci r24,hlo8(-(8))
 3537 10b8 9F4F      		sbci r25,hhi8(-(8))
 3538 10ba 0E94 0000 		call GetByte
 3539               	.LM404:
 3540 10be 1035      		cpi r17,lo8(80)
 3541 10c0 01F0      		breq .+2
 3542 10c2 00C0      		rjmp .L228
 3543 10c4 0134      		cpi r16,lo8(65)
 3544 10c6 01F0      		breq .+2
 3545 10c8 00C0      		rjmp .L228
 3546 10ca 6435      		cpi r22,lo8(84)
 3547 10cc 01F0      		breq .+2
 3548 10ce 00C0      		rjmp .L228
 3549               	.L221:
 3550               	.LBE547:
 3551               	.LM405:
 3552 10d0 A0E0      		ldi r26,lo8(sFATRecordPointer)
 3553 10d2 B0E0      		ldi r27,hi8(sFATRecordPointer)
 3554 10d4 FE01      		movw r30,r28
 3555 10d6 3196      		adiw r30,1
 3556 10d8 88E1      		ldi r24,lo8(24)
 3557               	.L219:
 3558 10da 0190      		ld r0,Z+
 3559 10dc 0D92      		st X+,r0
 3560 10de 8150      		subi r24,lo8(-(-1))
 3561 10e0 01F4      		brne .L219
 3562 10e2 81E0      		ldi r24,lo8(1)
 3563               	.L213:
 3564               	/* epilogue start */
 3565               	.LBE546:
 3566               	.LBE545:
 3567               	.LM406:
 3568 10e4 6896      		adiw r28,24
 3569 10e6 0FB6      		in __tmp_reg__,__SREG__
 3570 10e8 F894      		cli
 3571 10ea DEBF      		out __SP_H__,r29
 3572 10ec 0FBE      		out __SREG__,__tmp_reg__
 3573 10ee CDBF      		out __SP_L__,r28
 3574 10f0 CF91      		pop r28
 3575 10f2 DF91      		pop r29
 3576 10f4 1F91      		pop r17
 3577 10f6 0F91      		pop r16
 3578 10f8 FF90      		pop r15
 3579 10fa EF90      		pop r14
 3580 10fc DF90      		pop r13
 3581 10fe CF90      		pop r12
 3582 1100 BF90      		pop r11
 3583 1102 AF90      		pop r10
 3584 1104 0895      		ret
 3585               	.LVL295:
 3586               	.L230:
 3587               	.LBB551:
 3588               	.LBB550:
 3589               	.LM407:
 3590 1106 6D81      		ldd r22,Y+5
 3591 1108 7E81      		ldd r23,Y+6
 3592 110a 8F81      		ldd r24,Y+7
 3593 110c 9885      		ldd r25,Y+8
 3594               	.LVL296:
 3595 110e 655F      		subi r22,lo8(-(11))
 3596 1110 7F4F      		sbci r23,hi8(-(11))
 3597 1112 8F4F      		sbci r24,hlo8(-(11))
 3598 1114 9F4F      		sbci r25,hhi8(-(11))
 3599 1116 0E94 0000 		call GetByte
 3600               	.LM408:
 3601 111a 64FF      		sbrs r22,4
 3602 111c 00C0      		rjmp .L220
 3603 111e 00C0      		rjmp .L221
 3604               	.LBE550:
 3605               	.LBE551:
 3606               	.LFE36:
 3608               	.global	GetLong
 3610               	GetLong:
 3611               	.LFB42:
 3612               	.LM409:
 3613               	.LVL297:
 3614 1120 AF92      		push r10
 3615 1122 BF92      		push r11
 3616 1124 CF92      		push r12
 3617 1126 DF92      		push r13
 3618 1128 EF92      		push r14
 3619 112a FF92      		push r15
 3620 112c 0F93      		push r16
 3621 112e 1F93      		push r17
 3622               	/* prologue: function */
 3623               	/* frame size = 0 */
 3624 1130 5B01      		movw r10,r22
 3625 1132 6C01      		movw r12,r24
 3626               	.LM410:
 3627 1134 6D5F      		subi r22,lo8(-(3))
 3628 1136 7F4F      		sbci r23,hi8(-(3))
 3629 1138 8F4F      		sbci r24,hlo8(-(3))
 3630 113a 9F4F      		sbci r25,hhi8(-(3))
 3631               	.LVL298:
 3632 113c 0E94 0000 		call GetByte
 3633 1140 7B01      		movw r14,r22
 3634 1142 8C01      		movw r16,r24
 3635               	.LVL299:
 3636               	.LM411:
 3637 1144 102F      		mov r17,r16
 3638 1146 0F2D      		mov r16,r15
 3639 1148 FE2C      		mov r15,r14
 3640 114a EE24      		clr r14
 3641               	.LVL300:
 3642               	.LM412:
 3643 114c C601      		movw r24,r12
 3644 114e B501      		movw r22,r10
 3645 1150 6E5F      		subi r22,lo8(-(2))
 3646 1152 7F4F      		sbci r23,hi8(-(2))
 3647 1154 8F4F      		sbci r24,hlo8(-(2))
 3648 1156 9F4F      		sbci r25,hhi8(-(2))
 3649 1158 0E94 0000 		call GetByte
 3650 115c E62A      		or r14,r22
 3651 115e F72A      		or r15,r23
 3652 1160 082B      		or r16,r24
 3653 1162 192B      		or r17,r25
 3654               	.LM413:
 3655 1164 102F      		mov r17,r16
 3656 1166 0F2D      		mov r16,r15
 3657 1168 FE2C      		mov r15,r14
 3658 116a EE24      		clr r14
 3659               	.LVL301:
 3660               	.LM414:
 3661 116c C601      		movw r24,r12
 3662 116e B501      		movw r22,r10
 3663 1170 6F5F      		subi r22,lo8(-(1))
 3664 1172 7F4F      		sbci r23,hi8(-(1))
 3665 1174 8F4F      		sbci r24,hlo8(-(1))
 3666 1176 9F4F      		sbci r25,hhi8(-(1))
 3667 1178 0E94 0000 		call GetByte
 3668 117c E62A      		or r14,r22
 3669 117e F72A      		or r15,r23
 3670 1180 082B      		or r16,r24
 3671 1182 192B      		or r17,r25
 3672               	.LM415:
 3673 1184 102F      		mov r17,r16
 3674 1186 0F2D      		mov r16,r15
 3675 1188 FE2C      		mov r15,r14
 3676 118a EE24      		clr r14
 3677               	.LVL302:
 3678               	.LM416:
 3679 118c C601      		movw r24,r12
 3680 118e B501      		movw r22,r10
 3681 1190 0E94 0000 		call GetByte
 3682 1194 9B01      		movw r18,r22
 3683 1196 AC01      		movw r20,r24
 3684 1198 2E29      		or r18,r14
 3685 119a 3F29      		or r19,r15
 3686 119c 402B      		or r20,r16
 3687 119e 512B      		or r21,r17
 3688               	.LM417:
 3689 11a0 B901      		movw r22,r18
 3690 11a2 CA01      		movw r24,r20
 3691               	/* epilogue start */
 3692 11a4 1F91      		pop r17
 3693 11a6 0F91      		pop r16
 3694 11a8 FF90      		pop r15
 3695 11aa EF90      		pop r14
 3696               	.LVL303:
 3697 11ac DF90      		pop r13
 3698 11ae CF90      		pop r12
 3699 11b0 BF90      		pop r11
 3700 11b2 AF90      		pop r10
 3701               	.LVL304:
 3702 11b4 0895      		ret
 3703               	.LFE42:
 3705               	.global	FAT_GetFileSearch
 3707               	FAT_GetFileSearch:
 3708               	.LFB37:
 3709               	.LM418:
 3710               	.LVL305:
 3711 11b6 2F92      		push r2
 3712 11b8 3F92      		push r3
 3713 11ba 4F92      		push r4
 3714 11bc 5F92      		push r5
 3715 11be 6F92      		push r6
 3716 11c0 7F92      		push r7
 3717 11c2 8F92      		push r8
 3718 11c4 9F92      		push r9
 3719 11c6 AF92      		push r10
 3720 11c8 BF92      		push r11
 3721 11ca CF92      		push r12
 3722 11cc DF92      		push r13
 3723 11ce EF92      		push r14
 3724 11d0 FF92      		push r15
 3725 11d2 0F93      		push r16
 3726 11d4 1F93      		push r17
 3727 11d6 DF93      		push r29
 3728 11d8 CF93      		push r28
 3729 11da CDB7      		in r28,__SP_L__
 3730 11dc DEB7      		in r29,__SP_H__
 3731 11de 6897      		sbiw r28,24
 3732 11e0 0FB6      		in __tmp_reg__,__SREG__
 3733 11e2 F894      		cli
 3734 11e4 DEBF      		out __SP_H__,r29
 3735 11e6 0FBE      		out __SREG__,__tmp_reg__
 3736 11e8 CDBF      		out __SP_L__,r28
 3737               	/* prologue: function */
 3738               	/* frame size = 24 */
 3739 11ea 4C01      		movw r8,r24
 3740 11ec 2B01      		movw r4,r22
 3741 11ee 1A01      		movw r2,r20
 3742 11f0 3901      		movw r6,r18
 3743               	.LM419:
 3744 11f2 D901      		movw r26,r18
 3745 11f4 1C92      		st X,__zero_reg__
 3746               	.LM420:
 3747 11f6 0097      		sbiw r24,0
 3748 11f8 01F4      		brne .L234
 3749               	.LVL306:
 3750               	.L237:
 3751 11fa 5401      		movw r10,r8
 3752 11fc CC24      		clr r12
 3753 11fe DD24      		clr r13
 3754 1200 7601      		movw r14,r12
 3755 1202 00C0      		rjmp .L235
 3756               	.LVL307:
 3757               	.L234:
 3758 1204 80E0      		ldi r24,lo8(0)
 3759 1206 90E0      		ldi r25,hi8(0)
 3760               	.LVL308:
 3761               	.LM421:
 3762 1208 20E2      		ldi r18,lo8(32)
 3763               	.LVL309:
 3764               	.L236:
 3765 120a F401      		movw r30,r8
 3766 120c E80F      		add r30,r24
 3767 120e F91F      		adc r31,r25
 3768 1210 2083      		st Z,r18
 3769 1212 0196      		adiw r24,1
 3770 1214 8B30      		cpi r24,11
 3771 1216 9105      		cpc r25,__zero_reg__
 3772 1218 01F4      		brne .L236
 3773 121a 00C0      		rjmp .L237
 3774               	.LVL310:
 3775               	.L235:
 3776               	.LBB552:
 3777               	.LM422:
 3778 121c 6091 0000 		lds r22,sFATRecordPointer+4
 3779 1220 7091 0000 		lds r23,(sFATRecordPointer+4)+1
 3780 1224 8091 0000 		lds r24,(sFATRecordPointer+4)+2
 3781 1228 9091 0000 		lds r25,(sFATRecordPointer+4)+3
 3782               	.LVL311:
 3783 122c 6C0D      		add r22,r12
 3784 122e 7D1D      		adc r23,r13
 3785 1230 8E1D      		adc r24,r14
 3786 1232 9F1D      		adc r25,r15
 3787 1234 0E94 0000 		call GetByte
 3788               	.LVL312:
 3789 1238 8C2D      		mov r24,r12
 3790               	.LVL313:
 3791               	.LM423:
 3792 123a CC20      		tst r12
 3793 123c 01F4      		brne .L238
 3794               	.LM424:
 3795 123e 6032      		cpi r22,lo8(32)
 3796               	.LVL314:
 3797 1240 01F4      		brne .+2
 3798 1242 00C0      		rjmp .L239
 3799 1244 653E      		cpi r22,lo8(-27)
 3800 1246 01F4      		brne .+2
 3801 1248 00C0      		rjmp .L239
 3802               	.L238:
 3803               	.LM425:
 3804 124a 6032      		cpi r22,lo8(32)
 3805 124c 00F4      		brsh .+2
 3806 124e 00C0      		rjmp .L239
 3807               	.LM426:
 3808 1250 8114      		cp r8,__zero_reg__
 3809 1252 9104      		cpc r9,__zero_reg__
 3810 1254 01F0      		breq .L240
 3811               	.LM427:
 3812 1256 8830      		cpi r24,lo8(8)
 3813 1258 00F4      		brsh .L241
 3814 125a F501      		movw r30,r10
 3815 125c 6083      		st Z,r22
 3816 125e 00C0      		rjmp .L240
 3817               	.L241:
 3818               	.LM428:
 3819 1260 D501      		movw r26,r10
 3820 1262 1196      		adiw r26,1
 3821 1264 6C93      		st X,r22
 3822 1266 00C0      		rjmp .L242
 3823               	.L240:
 3824               	.LM429:
 3825 1268 8130      		cpi r24,lo8(1)
 3826 126a 01F4      		brne .L242
 3827               	.LBB553:
 3828               	.LM430:
 3829 126c 6091 0000 		lds r22,sFATRecordPointer+4
 3830 1270 7091 0000 		lds r23,(sFATRecordPointer+4)+1
 3831 1274 8091 0000 		lds r24,(sFATRecordPointer+4)+2
 3832 1278 9091 0000 		lds r25,(sFATRecordPointer+4)+3
 3833               	.LVL315:
 3834 127c 0E94 0000 		call GetByte
 3835               	.LVL316:
 3836 1280 162F      		mov r17,r22
 3837               	.LM431:
 3838 1282 6091 0000 		lds r22,sFATRecordPointer+4
 3839 1286 7091 0000 		lds r23,(sFATRecordPointer+4)+1
 3840 128a 8091 0000 		lds r24,(sFATRecordPointer+4)+2
 3841 128e 9091 0000 		lds r25,(sFATRecordPointer+4)+3
 3842 1292 6F5F      		subi r22,lo8(-(1))
 3843 1294 7F4F      		sbci r23,hi8(-(1))
 3844 1296 8F4F      		sbci r24,hlo8(-(1))
 3845 1298 9F4F      		sbci r25,hhi8(-(1))
 3846 129a 0E94 0000 		call GetByte
 3847               	.LM432:
 3848 129e 1E32      		cpi r17,lo8(46)
 3849 12a0 01F4      		brne .L242
 3850 12a2 6E32      		cpi r22,lo8(46)
 3851 12a4 01F0      		breq .+2
 3852 12a6 00C0      		rjmp .L239
 3853               	.LVL317:
 3854               	.L242:
 3855 12a8 0894      		sec
 3856 12aa C11C      		adc r12,__zero_reg__
 3857 12ac D11C      		adc r13,__zero_reg__
 3858 12ae E11C      		adc r14,__zero_reg__
 3859 12b0 F11C      		adc r15,__zero_reg__
 3860 12b2 0894      		sec
 3861 12b4 A11C      		adc r10,__zero_reg__
 3862 12b6 B11C      		adc r11,__zero_reg__
 3863               	.LBE553:
 3864               	.LBE552:
 3865               	.LM433:
 3866 12b8 BBE0      		ldi r27,lo8(11)
 3867 12ba CB16      		cp r12,r27
 3868 12bc D104      		cpc r13,__zero_reg__
 3869 12be E104      		cpc r14,__zero_reg__
 3870 12c0 F104      		cpc r15,__zero_reg__
 3871 12c2 01F0      		breq .+2
 3872 12c4 00C0      		rjmp .L235
 3873 12c6 00C0      		rjmp .L270
 3874               	.LVL318:
 3875               	.L260:
 3876               	.LBB554:
 3877               	.LBB559:
 3878               	.LM434:
 3879 12c8 0A96      		adiw r24,10
 3880 12ca A11D      		adc r26,__zero_reg__
 3881 12cc B11D      		adc r27,__zero_reg__
 3882 12ce BC01      		movw r22,r24
 3883 12d0 CD01      		movw r24,r26
 3884 12d2 0E94 0000 		call GetByte
 3885 12d6 162F      		mov r17,r22
 3886               	.LM435:
 3887 12d8 6091 0000 		lds r22,sFATRecordPointer+4
 3888 12dc 7091 0000 		lds r23,(sFATRecordPointer+4)+1
 3889 12e0 8091 0000 		lds r24,(sFATRecordPointer+4)+2
 3890 12e4 9091 0000 		lds r25,(sFATRecordPointer+4)+3
 3891 12e8 675F      		subi r22,lo8(-(9))
 3892 12ea 7F4F      		sbci r23,hi8(-(9))
 3893 12ec 8F4F      		sbci r24,hlo8(-(9))
 3894 12ee 9F4F      		sbci r25,hhi8(-(9))
 3895 12f0 0E94 0000 		call GetByte
 3896 12f4 062F      		mov r16,r22
 3897               	.LM436:
 3898 12f6 6091 0000 		lds r22,sFATRecordPointer+4
 3899 12fa 7091 0000 		lds r23,(sFATRecordPointer+4)+1
 3900 12fe 8091 0000 		lds r24,(sFATRecordPointer+4)+2
 3901 1302 9091 0000 		lds r25,(sFATRecordPointer+4)+3
 3902 1306 685F      		subi r22,lo8(-(8))
 3903 1308 7F4F      		sbci r23,hi8(-(8))
 3904 130a 8F4F      		sbci r24,hlo8(-(8))
 3905 130c 9F4F      		sbci r25,hhi8(-(8))
 3906 130e 0E94 0000 		call GetByte
 3907               	.LM437:
 3908 1312 1035      		cpi r17,lo8(80)
 3909 1314 01F0      		breq .+2
 3910 1316 00C0      		rjmp .L239
 3911 1318 0134      		cpi r16,lo8(65)
 3912 131a 01F0      		breq .+2
 3913 131c 00C0      		rjmp .L239
 3914 131e 6435      		cpi r22,lo8(84)
 3915 1320 01F0      		breq .+2
 3916 1322 00C0      		rjmp .L239
 3917 1324 00C0      		rjmp .L244
 3918               	.L271:
 3919               	.LBE559:
 3920               	.LBB558:
 3921               	.LM438:
 3922 1326 BC01      		movw r22,r24
 3923 1328 CD01      		movw r24,r26
 3924 132a 0E94 0000 		call GetByte
 3925 132e 162F      		mov r17,r22
 3926               	.LM439:
 3927 1330 6091 0000 		lds r22,sFATRecordPointer+4
 3928 1334 7091 0000 		lds r23,(sFATRecordPointer+4)+1
 3929 1338 8091 0000 		lds r24,(sFATRecordPointer+4)+2
 3930 133c 9091 0000 		lds r25,(sFATRecordPointer+4)+3
 3931 1340 6F5F      		subi r22,lo8(-(1))
 3932 1342 7F4F      		sbci r23,hi8(-(1))
 3933 1344 8F4F      		sbci r24,hlo8(-(1))
 3934 1346 9F4F      		sbci r25,hhi8(-(1))
 3935 1348 0E94 0000 		call GetByte
 3936               	.LM440:
 3937 134c 1E32      		cpi r17,lo8(46)
 3938 134e 01F4      		brne .L245
 3939 1350 6E32      		cpi r22,lo8(46)
 3940 1352 01F4      		brne .L245
 3941 1354 8FEF      		ldi r24,lo8(-1)
 3942 1356 F301      		movw r30,r6
 3943 1358 8083      		st Z,r24
 3944 135a 00C0      		rjmp .L244
 3945               	.L245:
 3946               	.LM441:
 3947 135c 81E0      		ldi r24,lo8(1)
 3948 135e D301      		movw r26,r6
 3949 1360 8C93      		st X,r24
 3950               	.L244:
 3951               	.LBE558:
 3952               	.LM442:
 3953 1362 6091 0000 		lds r22,sFATRecordPointer+4
 3954 1366 7091 0000 		lds r23,(sFATRecordPointer+4)+1
 3955 136a 8091 0000 		lds r24,(sFATRecordPointer+4)+2
 3956 136e 9091 0000 		lds r25,(sFATRecordPointer+4)+3
 3957 1372 6C5E      		subi r22,lo8(-(20))
 3958 1374 7F4F      		sbci r23,hi8(-(20))
 3959 1376 8F4F      		sbci r24,hlo8(-(20))
 3960 1378 9F4F      		sbci r25,hhi8(-(20))
 3961 137a 0E94 0000 		call GetShort
 3962 137e 7B01      		movw r14,r22
 3963 1380 8C01      		movw r16,r24
 3964 1382 6091 0000 		lds r22,sFATRecordPointer+4
 3965 1386 7091 0000 		lds r23,(sFATRecordPointer+4)+1
 3966 138a 8091 0000 		lds r24,(sFATRecordPointer+4)+2
 3967 138e 9091 0000 		lds r25,(sFATRecordPointer+4)+3
 3968 1392 665E      		subi r22,lo8(-(26))
 3969 1394 7F4F      		sbci r23,hi8(-(26))
 3970 1396 8F4F      		sbci r24,hlo8(-(26))
 3971 1398 9F4F      		sbci r25,hhi8(-(26))
 3972 139a 0E94 0000 		call GetShort
 3973 139e 8701      		movw r16,r14
 3974 13a0 FF24      		clr r15
 3975 13a2 EE24      		clr r14
 3976 13a4 E62A      		or r14,r22
 3977 13a6 F72A      		or r15,r23
 3978 13a8 082B      		or r16,r24
 3979 13aa 192B      		or r17,r25
 3980 13ac F201      		movw r30,r4
 3981 13ae E082      		st Z,r14
 3982 13b0 F182      		std Z+1,r15
 3983 13b2 0283      		std Z+2,r16
 3984 13b4 1383      		std Z+3,r17
 3985               	.LM443:
 3986 13b6 6091 0000 		lds r22,sFATRecordPointer+4
 3987 13ba 7091 0000 		lds r23,(sFATRecordPointer+4)+1
 3988 13be 8091 0000 		lds r24,(sFATRecordPointer+4)+2
 3989 13c2 9091 0000 		lds r25,(sFATRecordPointer+4)+3
 3990 13c6 645E      		subi r22,lo8(-(28))
 3991 13c8 7F4F      		sbci r23,hi8(-(28))
 3992 13ca 8F4F      		sbci r24,hlo8(-(28))
 3993 13cc 9F4F      		sbci r25,hhi8(-(28))
 3994 13ce 0E94 0000 		call GetLong
 3995 13d2 D101      		movw r26,r2
 3996 13d4 6D93      		st X+,r22
 3997 13d6 7D93      		st X+,r23
 3998 13d8 8D93      		st X+,r24
 3999 13da 9C93      		st X,r25
 4000 13dc 1397      		sbiw r26,3
 4001               	.LM444:
 4002 13de 8114      		cp r8,__zero_reg__
 4003 13e0 9104      		cpc r9,__zero_reg__
 4004 13e2 01F4      		brne .+2
 4005 13e4 00C0      		rjmp .L246
 4006               	.LBB555:
 4007               	.LM445:
 4008 13e6 CD28      		or r12,r13
 4009 13e8 01F4      		brne .L247
 4010 13ea 8EE2      		ldi r24,lo8(46)
 4011 13ec F401      		movw r30,r8
 4012 13ee 8087      		std Z+8,r24
 4013               	.L247:
 4014               	.LM446:
 4015 13f0 D401      		movw r26,r8
 4016 13f2 1C96      		adiw r26,12
 4017 13f4 1C92      		st X,__zero_reg__
 4018               	.LM447:
 4019 13f6 DE01      		movw r26,r28
 4020 13f8 1196      		adiw r26,1
 4021 13fa E0E0      		ldi r30,lo8(sFATRecordPointer)
 4022 13fc F0E0      		ldi r31,hi8(sFATRecordPointer)
 4023 13fe 88E1      		ldi r24,lo8(24)
 4024               	.L248:
 4025 1400 0190      		ld r0,Z+
 4026 1402 0D92      		st X+,r0
 4027 1404 8150      		subi r24,lo8(-(-1))
 4028 1406 01F4      		brne .L248
 4029 1408 DD24      		clr r13
 4030               	.LVL319:
 4031               	.LBB556:
 4032               	.LM448:
 4033 140a 5E01      		movw r10,r28
 4034 140c 0894      		sec
 4035 140e A11C      		adc r10,__zero_reg__
 4036 1410 B11C      		adc r11,__zero_reg__
 4037               	.L258:
 4038 1412 C501      		movw r24,r10
 4039 1414 0E94 0000 		call FAT_RecordPointerStepReverse
 4040 1418 8823      		tst r24
 4041 141a 01F4      		brne .+2
 4042 141c 00C0      		rjmp .L249
 4043               	.LM449:
 4044 141e 6D81      		ldd r22,Y+5
 4045 1420 7E81      		ldd r23,Y+6
 4046 1422 8F81      		ldd r24,Y+7
 4047 1424 9885      		ldd r25,Y+8
 4048 1426 655F      		subi r22,lo8(-(11))
 4049 1428 7F4F      		sbci r23,hi8(-(11))
 4050 142a 8F4F      		sbci r24,hlo8(-(11))
 4051 142c 9F4F      		sbci r25,hhi8(-(11))
 4052 142e 0E94 0000 		call GetByte
 4053               	.LM450:
 4054 1432 70E0      		ldi r23,lo8(0)
 4055 1434 6F70      		andi r22,lo8(15)
 4056 1436 7070      		andi r23,hi8(15)
 4057 1438 672B      		or r22,r23
 4058 143a 01F4      		brne .+2
 4059 143c 00C0      		rjmp .L249
 4060               	.LBB557:
 4061               	.LM451:
 4062 143e 6D81      		ldd r22,Y+5
 4063 1440 7E81      		ldd r23,Y+6
 4064 1442 8F81      		ldd r24,Y+7
 4065 1444 9885      		ldd r25,Y+8
 4066 1446 0E94 0000 		call GetByte
 4067 144a C62E      		mov r12,r22
 4068 144c EE24      		clr r14
 4069 144e FF24      		clr r15
 4070 1450 8701      		movw r16,r14
 4071 1452 00C0      		rjmp .L250
 4072               	.L252:
 4073               	.LM452:
 4074 1454 6D81      		ldd r22,Y+5
 4075 1456 7E81      		ldd r23,Y+6
 4076 1458 8F81      		ldd r24,Y+7
 4077 145a 9885      		ldd r25,Y+8
 4078 145c 6F5F      		subi r22,lo8(-(1))
 4079 145e 7F4F      		sbci r23,hi8(-(1))
 4080 1460 8F4F      		sbci r24,hlo8(-(1))
 4081 1462 9F4F      		sbci r25,hhi8(-(1))
 4082 1464 6E0D      		add r22,r14
 4083 1466 7F1D      		adc r23,r15
 4084 1468 801F      		adc r24,r16
 4085 146a 911F      		adc r25,r17
 4086 146c 0E94 0000 		call GetByte
 4087 1470 F401      		movw r30,r8
 4088 1472 ED0D      		add r30,r13
 4089 1474 F11D      		adc r31,__zero_reg__
 4090 1476 6083      		st Z,r22
 4091 1478 D394      		inc r13
 4092 147a 82E0      		ldi r24,lo8(2)
 4093 147c 90E0      		ldi r25,hi8(2)
 4094 147e A0E0      		ldi r26,hlo8(2)
 4095 1480 B0E0      		ldi r27,hhi8(2)
 4096 1482 E80E      		add r14,r24
 4097 1484 F91E      		adc r15,r25
 4098 1486 0A1F      		adc r16,r26
 4099 1488 1B1F      		adc r17,r27
 4100 148a 9AE0      		ldi r25,lo8(10)
 4101 148c E916      		cp r14,r25
 4102 148e F104      		cpc r15,__zero_reg__
 4103 1490 0105      		cpc r16,__zero_reg__
 4104 1492 1105      		cpc r17,__zero_reg__
 4105 1494 01F4      		brne .L250
 4106               	.L253:
 4107 1496 EE24      		clr r14
 4108 1498 FF24      		clr r15
 4109 149a 8701      		movw r16,r14
 4110 149c 00C0      		rjmp .L251
 4111               	.L250:
 4112 149e A0E1      		ldi r26,lo8(16)
 4113 14a0 AD15      		cp r26,r13
 4114 14a2 00F4      		brsh .L252
 4115 14a4 00C0      		rjmp .L253
 4116               	.L256:
 4117               	.LM453:
 4118 14a6 6D81      		ldd r22,Y+5
 4119 14a8 7E81      		ldd r23,Y+6
 4120 14aa 8F81      		ldd r24,Y+7
 4121 14ac 9885      		ldd r25,Y+8
 4122 14ae 625F      		subi r22,lo8(-(14))
 4123 14b0 7F4F      		sbci r23,hi8(-(14))
 4124 14b2 8F4F      		sbci r24,hlo8(-(14))
 4125 14b4 9F4F      		sbci r25,hhi8(-(14))
 4126 14b6 6E0D      		add r22,r14
 4127 14b8 7F1D      		adc r23,r15
 4128 14ba 801F      		adc r24,r16
 4129 14bc 911F      		adc r25,r17
 4130 14be 0E94 0000 		call GetByte
 4131 14c2 F401      		movw r30,r8
 4132 14c4 ED0D      		add r30,r13
 4133 14c6 F11D      		adc r31,__zero_reg__
 4134 14c8 6083      		st Z,r22
 4135 14ca D394      		inc r13
 4136 14cc 82E0      		ldi r24,lo8(2)
 4137 14ce 90E0      		ldi r25,hi8(2)
 4138 14d0 A0E0      		ldi r26,hlo8(2)
 4139 14d2 B0E0      		ldi r27,hhi8(2)
 4140 14d4 E80E      		add r14,r24
 4141 14d6 F91E      		adc r15,r25
 4142 14d8 0A1F      		adc r16,r26
 4143 14da 1B1F      		adc r17,r27
 4144 14dc 9CE0      		ldi r25,lo8(12)
 4145 14de E916      		cp r14,r25
 4146 14e0 F104      		cpc r15,__zero_reg__
 4147 14e2 0105      		cpc r16,__zero_reg__
 4148 14e4 1105      		cpc r17,__zero_reg__
 4149 14e6 01F4      		brne .L251
 4150               	.LM454:
 4151 14e8 A0E1      		ldi r26,lo8(16)
 4152 14ea AD15      		cp r26,r13
 4153 14ec 00F4      		brsh .+2
 4154 14ee 00C0      		rjmp .L254
 4155 14f0 6D81      		ldd r22,Y+5
 4156 14f2 7E81      		ldd r23,Y+6
 4157 14f4 8F81      		ldd r24,Y+7
 4158 14f6 9885      		ldd r25,Y+8
 4159 14f8 645E      		subi r22,lo8(-(28))
 4160 14fa 7F4F      		sbci r23,hi8(-(28))
 4161 14fc 8F4F      		sbci r24,hlo8(-(28))
 4162 14fe 9F4F      		sbci r25,hhi8(-(28))
 4163 1500 0E94 0000 		call GetByte
 4164 1504 F401      		movw r30,r8
 4165 1506 ED0D      		add r30,r13
 4166 1508 F11D      		adc r31,__zero_reg__
 4167 150a 6083      		st Z,r22
 4168 150c 1D2D      		mov r17,r13
 4169 150e 1F5F      		subi r17,lo8(-(1))
 4170               	.LVL320:
 4171 1510 1131      		cpi r17,lo8(17)
 4172 1512 01F4      		brne .L255
 4173 1514 00C0      		rjmp .L254
 4174               	.LVL321:
 4175               	.L251:
 4176               	.LM455:
 4177 1516 B0E1      		ldi r27,lo8(16)
 4178 1518 BD15      		cp r27,r13
 4179 151a 00F4      		brsh .L256
 4180 151c 00C0      		rjmp .L254
 4181               	.LVL322:
 4182               	.L255:
 4183               	.LM456:
 4184 151e 6D81      		ldd r22,Y+5
 4185 1520 7E81      		ldd r23,Y+6
 4186 1522 8F81      		ldd r24,Y+7
 4187 1524 9885      		ldd r25,Y+8
 4188 1526 625E      		subi r22,lo8(-(30))
 4189 1528 7F4F      		sbci r23,hi8(-(30))
 4190 152a 8F4F      		sbci r24,hlo8(-(30))
 4191 152c 9F4F      		sbci r25,hhi8(-(30))
 4192 152e 0E94 0000 		call GetByte
 4193 1532 F401      		movw r30,r8
 4194 1534 E10F      		add r30,r17
 4195 1536 F11D      		adc r31,__zero_reg__
 4196 1538 6083      		st Z,r22
 4197 153a D12E      		mov r13,r17
 4198 153c D394      		inc r13
 4199               	.LVL323:
 4200               	.LM457:
 4201 153e E1E1      		ldi r30,lo8(17)
 4202 1540 DE16      		cp r13,r30
 4203 1542 01F4      		brne .+2
 4204 1544 00C0      		rjmp .L254
 4205               	.LM458:
 4206 1546 C6FE      		sbrs r12,6
 4207 1548 00C0      		rjmp .L258
 4208 154a 00C0      		rjmp .L257
 4209               	.L249:
 4210               	.LBE557:
 4211               	.LBE556:
 4212               	.LM459:
 4213 154c F0E1      		ldi r31,lo8(16)
 4214 154e FD15      		cp r31,r13
 4215 1550 00F4      		brsh .+2
 4216 1552 00C0      		rjmp .L254
 4217               	.LM460:
 4218 1554 DD20      		tst r13
 4219 1556 01F0      		breq .L246
 4220               	.L257:
 4221 1558 8D0C      		add r8,r13
 4222 155a 911C      		adc r9,__zero_reg__
 4223 155c D401      		movw r26,r8
 4224 155e 1C92      		st X,__zero_reg__
 4225 1560 00C0      		rjmp .L246
 4226               	.LVL324:
 4227               	.L239:
 4228 1562 80E0      		ldi r24,lo8(0)
 4229               	.LVL325:
 4230 1564 00C0      		rjmp .L259
 4231               	.LVL326:
 4232               	.L246:
 4233 1566 81E0      		ldi r24,lo8(1)
 4234               	.LVL327:
 4235               	.L259:
 4236               	/* epilogue start */
 4237               	.LBE555:
 4238               	.LBE554:
 4239               	.LM461:
 4240 1568 6896      		adiw r28,24
 4241 156a 0FB6      		in __tmp_reg__,__SREG__
 4242 156c F894      		cli
 4243 156e DEBF      		out __SP_H__,r29
 4244 1570 0FBE      		out __SREG__,__tmp_reg__
 4245 1572 CDBF      		out __SP_L__,r28
 4246 1574 CF91      		pop r28
 4247 1576 DF91      		pop r29
 4248 1578 1F91      		pop r17
 4249 157a 0F91      		pop r16
 4250 157c FF90      		pop r15
 4251 157e EF90      		pop r14
 4252 1580 DF90      		pop r13
 4253               	.LVL328:
 4254 1582 CF90      		pop r12
 4255 1584 BF90      		pop r11
 4256 1586 AF90      		pop r10
 4257 1588 9F90      		pop r9
 4258 158a 8F90      		pop r8
 4259               	.LVL329:
 4260 158c 7F90      		pop r7
 4261 158e 6F90      		pop r6
 4262               	.LVL330:
 4263 1590 5F90      		pop r5
 4264 1592 4F90      		pop r4
 4265               	.LVL331:
 4266 1594 3F90      		pop r3
 4267 1596 2F90      		pop r2
 4268               	.LVL332:
 4269 1598 0895      		ret
 4270               	.LVL333:
 4271               	.L270:
 4272               	.LBB560:
 4273               	.LM462:
 4274 159a 6091 0000 		lds r22,sFATRecordPointer+4
 4275 159e 7091 0000 		lds r23,(sFATRecordPointer+4)+1
 4276 15a2 8091 0000 		lds r24,(sFATRecordPointer+4)+2
 4277 15a6 9091 0000 		lds r25,(sFATRecordPointer+4)+3
 4278               	.LVL334:
 4279 15aa 655F      		subi r22,lo8(-(11))
 4280 15ac 7F4F      		sbci r23,hi8(-(11))
 4281 15ae 8F4F      		sbci r24,hlo8(-(11))
 4282 15b0 9F4F      		sbci r25,hhi8(-(11))
 4283 15b2 0E94 0000 		call GetByte
 4284               	.LVL335:
 4285               	.LM463:
 4286 15b6 70E0      		ldi r23,lo8(0)
 4287 15b8 8091 0000 		lds r24,sFATRecordPointer+4
 4288 15bc 9091 0000 		lds r25,(sFATRecordPointer+4)+1
 4289 15c0 A091 0000 		lds r26,(sFATRecordPointer+4)+2
 4290 15c4 B091 0000 		lds r27,(sFATRecordPointer+4)+3
 4291 15c8 E0E1      		ldi r30,lo8(16)
 4292 15ca CE2E      		mov r12,r30
 4293 15cc D12C      		mov r13,__zero_reg__
 4294 15ce C622      		and r12,r22
 4295 15d0 D722      		and r13,r23
 4296 15d2 64FF      		sbrs r22,4
 4297 15d4 00C0      		rjmp .L260
 4298 15d6 00C0      		rjmp .L271
 4299               	.LVL336:
 4300               	.L254:
 4301 15d8 70E1      		ldi r23,lo8(16)
 4302 15da D72E      		mov r13,r23
 4303 15dc 00C0      		rjmp .L257
 4304               	.LBE560:
 4305               	.LFE37:
 4307               	.global	FAT_WriteBlock
 4309               	FAT_WriteBlock:
 4310               	.LFB39:
 4311               	.LM464:
 4312               	.LVL337:
 4313 15de 2F92      		push r2
 4314 15e0 3F92      		push r3
 4315 15e2 4F92      		push r4
 4316 15e4 5F92      		push r5
 4317 15e6 6F92      		push r6
 4318 15e8 7F92      		push r7
 4319 15ea 8F92      		push r8
 4320 15ec 9F92      		push r9
 4321 15ee AF92      		push r10
 4322 15f0 BF92      		push r11
 4323 15f2 CF92      		push r12
 4324 15f4 DF92      		push r13
 4325 15f6 EF92      		push r14
 4326 15f8 FF92      		push r15
 4327 15fa 0F93      		push r16
 4328 15fc 1F93      		push r17
 4329 15fe DF93      		push r29
 4330 1600 CF93      		push r28
 4331 1602 CDB7      		in r28,__SP_L__
 4332 1604 DEB7      		in r29,__SP_H__
 4333 1606 6697      		sbiw r28,22
 4334 1608 0FB6      		in __tmp_reg__,__SREG__
 4335 160a F894      		cli
 4336 160c DEBF      		out __SP_H__,r29
 4337 160e 0FBE      		out __SREG__,__tmp_reg__
 4338 1610 CDBF      		out __SP_L__,r28
 4339               	/* prologue: function */
 4340               	/* frame size = 22 */
 4341 1612 9A8B      		std Y+18,r25
 4342 1614 898B      		std Y+17,r24
 4343 1616 7C8B      		std Y+20,r23
 4344 1618 6B8B      		std Y+19,r22
 4345               	.LM465:
 4346 161a FC01      		movw r30,r24
 4347 161c 1182      		std Z+1,__zero_reg__
 4348 161e 1082      		st Z,__zero_reg__
 4349               	.LM466:
 4350 1620 80E0      		ldi r24,lo8(string)
 4351 1622 90E0      		ldi r25,hi8(string)
 4352               	.LVL338:
 4353 1624 BE01      		movw r22,r28
 4354               	.LVL339:
 4355 1626 6E5F      		subi r22,lo8(-(2))
 4356 1628 7F4F      		sbci r23,hi8(-(2))
 4357 162a AE01      		movw r20,r28
 4358 162c 4A5F      		subi r20,lo8(-(6))
 4359 162e 5F4F      		sbci r21,hi8(-(6))
 4360 1630 9E01      		movw r18,r28
 4361 1632 2F5F      		subi r18,lo8(-(1))
 4362 1634 3F4F      		sbci r19,hi8(-(1))
 4363 1636 0E94 0000 		call FAT_GetFileSearch
 4364 163a 8823      		tst r24
 4365 163c 01F4      		brne .+2
 4366 163e 00C0      		rjmp .L273
 4367 1640 6624      		clr r6
 4368 1642 7724      		clr r7
 4369 1644 4301      		movw r8,r6
 4370               	.LVL340:
 4371 1646 2224      		clr r2
 4372 1648 3324      		clr r3
 4373               	.LVL341:
 4374 164a 188A      		std Y+16,__zero_reg__
 4375 164c 1F86      		std Y+15,__zero_reg__
 4376               	.LVL342:
 4377 164e 4424      		clr r4
 4378 1650 5524      		clr r5
 4379               	.LVL343:
 4380 1652 1E86      		std Y+14,__zero_reg__
 4381               	.LVL344:
 4382 1654 00C0      		rjmp .L274
 4383               	.LVL345:
 4384               	.L286:
 4385               	.LBB561:
 4386               	.LM467:
 4387 1656 0E94 0000 		call DRAM_Refresh
 4388               	.LVL346:
 4389               	.LM468:
 4390 165a A090 0000 		lds r10,ClusterSize
 4391 165e B090 0000 		lds r11,(ClusterSize)+1
 4392 1662 C090 0000 		lds r12,(ClusterSize)+2
 4393 1666 D090 0000 		lds r13,(ClusterSize)+3
 4394               	.LM469:
 4395 166a 2E81      		ldd r18,Y+6
 4396 166c 3F81      		ldd r19,Y+7
 4397 166e 4885      		ldd r20,Y+8
 4398 1670 5985      		ldd r21,Y+9
 4399 1672 D401      		movw r26,r8
 4400 1674 C301      		movw r24,r6
 4401 1676 8A0D      		add r24,r10
 4402 1678 9B1D      		adc r25,r11
 4403 167a AC1D      		adc r26,r12
 4404 167c BD1D      		adc r27,r13
 4405 167e 8217      		cp r24,r18
 4406 1680 9307      		cpc r25,r19
 4407 1682 A407      		cpc r26,r20
 4408 1684 B507      		cpc r27,r21
 4409 1686 00F0      		brlo .L275
 4410 1688 5901      		movw r10,r18
 4411 168a 6A01      		movw r12,r20
 4412 168c A618      		sub r10,r6
 4413 168e B708      		sbc r11,r7
 4414 1690 C808      		sbc r12,r8
 4415 1692 D908      		sbc r13,r9
 4416               	.L275:
 4417               	.LM470:
 4418 1694 6A81      		ldd r22,Y+2
 4419 1696 7B81      		ldd r23,Y+3
 4420 1698 8C81      		ldd r24,Y+4
 4421 169a 9D81      		ldd r25,Y+5
 4422 169c 6250      		subi r22,lo8(-(-2))
 4423 169e 7040      		sbci r23,hi8(-(-2))
 4424 16a0 8040      		sbci r24,hlo8(-(-2))
 4425 16a2 9040      		sbci r25,hhi8(-(-2))
 4426               	.LVL347:
 4427 16a4 2091 0000 		lds r18,SecPerClus
 4428 16a8 3091 0000 		lds r19,(SecPerClus)+1
 4429 16ac 4091 0000 		lds r20,(SecPerClus)+2
 4430 16b0 5091 0000 		lds r21,(SecPerClus)+3
 4431 16b4 0E94 0000 		call __mulsi3
 4432               	.LVL348:
 4433 16b8 9B01      		movw r18,r22
 4434 16ba AC01      		movw r20,r24
 4435 16bc 6091 0000 		lds r22,FirstDataSector
 4436 16c0 7091 0000 		lds r23,(FirstDataSector)+1
 4437 16c4 8091 0000 		lds r24,(FirstDataSector)+2
 4438 16c8 9091 0000 		lds r25,(FirstDataSector)+3
 4439 16cc 620F      		add r22,r18
 4440 16ce 731F      		adc r23,r19
 4441 16d0 841F      		adc r24,r20
 4442 16d2 951F      		adc r25,r21
 4443 16d4 2091 0000 		lds r18,BytsPerSec
 4444 16d8 3091 0000 		lds r19,(BytsPerSec)+1
 4445 16dc 4091 0000 		lds r20,(BytsPerSec)+2
 4446 16e0 5091 0000 		lds r21,(BytsPerSec)+3
 4447 16e4 0E94 0000 		call __mulsi3
 4448 16e8 6A87      		std Y+10,r22
 4449 16ea 7B87      		std Y+11,r23
 4450 16ec 8C87      		std Y+12,r24
 4451 16ee 9D87      		std Y+13,r25
 4452               	.LVL349:
 4453 16f0 EE24      		clr r14
 4454 16f2 FF24      		clr r15
 4455 16f4 8701      		movw r16,r14
 4456               	.LVL350:
 4457 16f6 00C0      		rjmp .L276
 4458               	.L283:
 4459               	.LBB562:
 4460               	.LBB563:
 4461               	.LM471:
 4462 16f8 0E94 0000 		call DRAM_Refresh
 4463               	.LM472:
 4464 16fc 6A85      		ldd r22,Y+10
 4465 16fe 7B85      		ldd r23,Y+11
 4466 1700 8C85      		ldd r24,Y+12
 4467 1702 9D85      		ldd r25,Y+13
 4468 1704 6E0D      		add r22,r14
 4469 1706 7F1D      		adc r23,r15
 4470 1708 801F      		adc r24,r16
 4471 170a 911F      		adc r25,r17
 4472 170c 0E94 0000 		call GetByte
 4473 1710 462F      		mov r20,r22
 4474               	.LM473:
 4475 1712 FE85      		ldd r31,Y+14
 4476 1714 FF23      		tst r31
 4477 1716 01F4      		brne .L277
 4478               	.LM474:
 4479 1718 462E      		mov r4,r22
 4480               	.LVL351:
 4481 171a 5524      		clr r5
 4482 171c 21E0      		ldi r18,lo8(1)
 4483 171e 2E87      		std Y+14,r18
 4484               	.LVL352:
 4485 1720 00C0      		rjmp .L278
 4486               	.L277:
 4487               	.LM475:
 4488 1722 3E85      		ldd r19,Y+14
 4489 1724 3130      		cpi r19,lo8(1)
 4490 1726 01F4      		brne .L279
 4491               	.LM476:
 4492 1728 6E8B      		std Y+22,r22
 4493 172a 1D8A      		std Y+21,__zero_reg__
 4494 172c 8D89      		ldd r24,Y+21
 4495 172e 9E89      		ldd r25,Y+22
 4496 1730 482A      		or r4,r24
 4497 1732 592A      		or r5,r25
 4498 1734 2224      		clr r2
 4499 1736 3324      		clr r3
 4500 1738 92E0      		ldi r25,lo8(2)
 4501 173a 9E87      		std Y+14,r25
 4502               	.LVL353:
 4503 173c 00C0      		rjmp .L278
 4504               	.L279:
 4505               	.LM477:
 4506 173e EE85      		ldd r30,Y+14
 4507 1740 E230      		cpi r30,lo8(2)
 4508 1742 01F4      		brne .L278
 4509               	.LM478:
 4510 1744 2F85      		ldd r18,Y+15
 4511 1746 3889      		ldd r19,Y+16
 4512 1748 8B89      		ldd r24,Y+19
 4513 174a 9C89      		ldd r25,Y+20
 4514 174c 2817      		cp r18,r24
 4515 174e 3907      		cpc r19,r25
 4516 1750 01F4      		brne .L280
 4517 1752 B101      		movw r22,r2
 4518 1754 80E0      		ldi r24,lo8(0)
 4519 1756 90E0      		ldi r25,hi8(0)
 4520               	.LVL354:
 4521 1758 0E94 0000 		call DRAM_WriteByte
 4522               	.LVL355:
 4523               	.L280:
 4524               	.LM479:
 4525 175c 0894      		sec
 4526 175e 211C      		adc r2,__zero_reg__
 4527 1760 311C      		adc r3,__zero_reg__
 4528               	.LM480:
 4529 1762 2414      		cp r2,r4
 4530 1764 3504      		cpc r3,r5
 4531 1766 00F0      		brlo .L278
 4532               	.LM481:
 4533 1768 EF85      		ldd r30,Y+15
 4534 176a F889      		ldd r31,Y+16
 4535 176c 2B89      		ldd r18,Y+19
 4536 176e 3C89      		ldd r19,Y+20
 4537 1770 E217      		cp r30,r18
 4538 1772 F307      		cpc r31,r19
 4539 1774 01F4      		brne .L281
 4540               	.LM482:
 4541 1776 E989      		ldd r30,Y+17
 4542 1778 FA89      		ldd r31,Y+18
 4543 177a 5182      		std Z+1,r5
 4544 177c 4082      		st Z,r4
 4545 177e 81E0      		ldi r24,lo8(1)
 4546 1780 00C0      		rjmp .L282
 4547               	.L281:
 4548               	.LM483:
 4549 1782 2F85      		ldd r18,Y+15
 4550 1784 3889      		ldd r19,Y+16
 4551 1786 2F5F      		subi r18,lo8(-(1))
 4552 1788 3F4F      		sbci r19,hi8(-(1))
 4553 178a 388B      		std Y+16,r19
 4554 178c 2F87      		std Y+15,r18
 4555               	.LVL356:
 4556 178e 4424      		clr r4
 4557 1790 5524      		clr r5
 4558 1792 1E86      		std Y+14,__zero_reg__
 4559               	.LVL357:
 4560               	.L278:
 4561               	.LBE563:
 4562               	.LM484:
 4563 1794 0894      		sec
 4564 1796 E11C      		adc r14,__zero_reg__
 4565 1798 F11C      		adc r15,__zero_reg__
 4566 179a 011D      		adc r16,__zero_reg__
 4567 179c 111D      		adc r17,__zero_reg__
 4568 179e 0894      		sec
 4569 17a0 611C      		adc r6,__zero_reg__
 4570 17a2 711C      		adc r7,__zero_reg__
 4571 17a4 811C      		adc r8,__zero_reg__
 4572 17a6 911C      		adc r9,__zero_reg__
 4573               	.L276:
 4574 17a8 EA14      		cp r14,r10
 4575 17aa FB04      		cpc r15,r11
 4576 17ac 0C05      		cpc r16,r12
 4577 17ae 1D05      		cpc r17,r13
 4578 17b0 00F4      		brsh .+2
 4579 17b2 00C0      		rjmp .L283
 4580               	.LBE562:
 4581               	.LM485:
 4582 17b4 E091 0000 		lds r30,FATType
 4583 17b8 E130      		cpi r30,lo8(1)
 4584 17ba 01F0      		breq .L284
 4585 17bc EE24      		clr r14
 4586 17be FF24      		clr r15
 4587 17c0 8701      		movw r16,r14
 4588               	.LVL358:
 4589 17c2 00C0      		rjmp .L285
 4590               	.LVL359:
 4591               	.L284:
 4592 17c4 EA80      		ldd r14,Y+2
 4593 17c6 FB80      		ldd r15,Y+3
 4594 17c8 0C81      		ldd r16,Y+4
 4595 17ca 1D81      		ldd r17,Y+5
 4596               	.LVL360:
 4597 17cc EE0C      		lsl r14
 4598 17ce FF1C      		rol r15
 4599 17d0 001F      		rol r16
 4600 17d2 111F      		rol r17
 4601               	.L285:
 4602               	.LM486:
 4603 17d4 2091 0000 		lds r18,ResvdSecCnt
 4604 17d8 3091 0000 		lds r19,(ResvdSecCnt)+1
 4605 17dc 4091 0000 		lds r20,(ResvdSecCnt)+2
 4606 17e0 5091 0000 		lds r21,(ResvdSecCnt)+3
 4607 17e4 6091 0000 		lds r22,BytsPerSec
 4608 17e8 7091 0000 		lds r23,(BytsPerSec)+1
 4609 17ec 8091 0000 		lds r24,(BytsPerSec)+2
 4610 17f0 9091 0000 		lds r25,(BytsPerSec)+3
 4611               	.LM487:
 4612 17f4 E130      		cpi r30,lo8(1)
 4613 17f6 01F4      		brne .L273
 4614 17f8 0E94 0000 		call __mulsi3
 4615 17fc E60E      		add r14,r22
 4616 17fe F71E      		adc r15,r23
 4617 1800 081F      		adc r16,r24
 4618 1802 191F      		adc r17,r25
 4619 1804 C801      		movw r24,r16
 4620 1806 B701      		movw r22,r14
 4621 1808 0E94 0000 		call GetShort
 4622 180c 9B01      		movw r18,r22
 4623 180e AC01      		movw r20,r24
 4624               	.LVL361:
 4625               	.LM488:
 4626 1810 6115      		cp r22,__zero_reg__
 4627 1812 7105      		cpc r23,__zero_reg__
 4628 1814 8105      		cpc r24,__zero_reg__
 4629 1816 9105      		cpc r25,__zero_reg__
 4630 1818 01F0      		breq .L273
 4631               	.LVL362:
 4632               	.LM489:
 4633 181a 8091 0000 		lds r24,CountofClusters
 4634 181e 9091 0000 		lds r25,(CountofClusters)+1
 4635 1822 A091 0000 		lds r26,(CountofClusters)+2
 4636 1826 B091 0000 		lds r27,(CountofClusters)+3
 4637 182a 0296      		adiw r24,2
 4638 182c A11D      		adc r26,__zero_reg__
 4639 182e B11D      		adc r27,__zero_reg__
 4640 1830 2817      		cp r18,r24
 4641 1832 3907      		cpc r19,r25
 4642 1834 4A07      		cpc r20,r26
 4643 1836 5B07      		cpc r21,r27
 4644 1838 00F4      		brsh .L273
 4645               	.LVL363:
 4646               	.LM490:
 4647 183a 2A83      		std Y+2,r18
 4648 183c 3B83      		std Y+3,r19
 4649 183e 4C83      		std Y+4,r20
 4650 1840 5D83      		std Y+5,r21
 4651               	.LVL364:
 4652               	.L274:
 4653               	.LBE561:
 4654               	.LM491:
 4655 1842 8E81      		ldd r24,Y+6
 4656 1844 9F81      		ldd r25,Y+7
 4657 1846 A885      		ldd r26,Y+8
 4658 1848 B985      		ldd r27,Y+9
 4659 184a 6816      		cp r6,r24
 4660 184c 7906      		cpc r7,r25
 4661 184e 8A06      		cpc r8,r26
 4662 1850 9B06      		cpc r9,r27
 4663 1852 00F4      		brsh .+2
 4664 1854 00C0      		rjmp .L286
 4665               	.L273:
 4666 1856 80E0      		ldi r24,lo8(0)
 4667               	.LVL365:
 4668               	.L282:
 4669               	/* epilogue start */
 4670               	.LM492:
 4671 1858 6696      		adiw r28,22
 4672 185a 0FB6      		in __tmp_reg__,__SREG__
 4673 185c F894      		cli
 4674 185e DEBF      		out __SP_H__,r29
 4675 1860 0FBE      		out __SREG__,__tmp_reg__
 4676 1862 CDBF      		out __SP_L__,r28
 4677 1864 CF91      		pop r28
 4678 1866 DF91      		pop r29
 4679 1868 1F91      		pop r17
 4680 186a 0F91      		pop r16
 4681 186c FF90      		pop r15
 4682 186e EF90      		pop r14
 4683               	.LVL366:
 4684 1870 DF90      		pop r13
 4685 1872 CF90      		pop r12
 4686 1874 BF90      		pop r11
 4687 1876 AF90      		pop r10
 4688               	.LVL367:
 4689 1878 9F90      		pop r9
 4690 187a 8F90      		pop r8
 4691 187c 7F90      		pop r7
 4692 187e 6F90      		pop r6
 4693               	.LVL368:
 4694 1880 5F90      		pop r5
 4695               	.LVL369:
 4696 1882 4F90      		pop r4
 4697               	.LVL370:
 4698 1884 3F90      		pop r3
 4699 1886 2F90      		pop r2
 4700               	.LVL371:
 4701 1888 0895      		ret
 4702               	.LFE39:
 4704               	.global	FAT_BeginFileSearch
 4706               	FAT_BeginFileSearch:
 4707               	.LFB34:
 4708               	.LM493:
 4709 188a AF92      		push r10
 4710 188c BF92      		push r11
 4711 188e CF92      		push r12
 4712 1890 DF92      		push r13
 4713 1892 EF92      		push r14
 4714 1894 FF92      		push r15
 4715 1896 0F93      		push r16
 4716 1898 1F93      		push r17
 4717 189a DF93      		push r29
 4718 189c CF93      		push r28
 4719 189e CDB7      		in r28,__SP_L__
 4720 18a0 DEB7      		in r29,__SP_H__
 4721 18a2 2997      		sbiw r28,9
 4722 18a4 0FB6      		in __tmp_reg__,__SREG__
 4723 18a6 F894      		cli
 4724 18a8 DEBF      		out __SP_H__,r29
 4725 18aa 0FBE      		out __SREG__,__tmp_reg__
 4726 18ac CDBF      		out __SP_L__,r28
 4727               	/* prologue: function */
 4728               	/* frame size = 9 */
 4729               	.LM494:
 4730 18ae E090 0000 		lds r14,sFATRecordPointer
 4731 18b2 F090 0000 		lds r15,(sFATRecordPointer)+1
 4732 18b6 0091 0000 		lds r16,(sFATRecordPointer)+2
 4733 18ba 1091 0000 		lds r17,(sFATRecordPointer)+3
 4734 18be E092 0000 		sts sFATRecordPointer+4,r14
 4735 18c2 F092 0000 		sts (sFATRecordPointer+4)+1,r15
 4736 18c6 0093 0000 		sts (sFATRecordPointer+4)+2,r16
 4737 18ca 1093 0000 		sts (sFATRecordPointer+4)+3,r17
 4738               	.LM495:
 4739 18ce 8091 0000 		lds r24,sFATRecordPointer+8
 4740 18d2 9091 0000 		lds r25,(sFATRecordPointer+8)+1
 4741 18d6 A091 0000 		lds r26,(sFATRecordPointer+8)+2
 4742 18da B091 0000 		lds r27,(sFATRecordPointer+8)+3
 4743 18de 8093 0000 		sts sFATRecordPointer+12,r24
 4744 18e2 9093 0000 		sts (sFATRecordPointer+12)+1,r25
 4745 18e6 A093 0000 		sts (sFATRecordPointer+12)+2,r26
 4746 18ea B093 0000 		sts (sFATRecordPointer+12)+3,r27
 4747               	.LM496:
 4748 18ee E092 0000 		sts sFATRecordPointer+16,r14
 4749 18f2 F092 0000 		sts (sFATRecordPointer+16)+1,r15
 4750 18f6 0093 0000 		sts (sFATRecordPointer+16)+2,r16
 4751 18fa 1093 0000 		sts (sFATRecordPointer+16)+3,r17
 4752               	.LM497:
 4753 18fe 8091 0000 		lds r24,FirstRootFolderAddr
 4754 1902 9091 0000 		lds r25,(FirstRootFolderAddr)+1
 4755 1906 A091 0000 		lds r26,(FirstRootFolderAddr)+2
 4756 190a B091 0000 		lds r27,(FirstRootFolderAddr)+3
 4757 190e A090 0000 		lds r10,BytsPerSec
 4758 1912 B090 0000 		lds r11,(BytsPerSec)+1
 4759 1916 C090 0000 		lds r12,(BytsPerSec)+2
 4760 191a D090 0000 		lds r13,(BytsPerSec)+3
 4761 191e E816      		cp r14,r24
 4762 1920 F906      		cpc r15,r25
 4763 1922 0A07      		cpc r16,r26
 4764 1924 1B07      		cpc r17,r27
 4765 1926 01F0      		breq .L289
 4766               	.LM498:
 4767 1928 2091 0000 		lds r18,SecPerClus
 4768 192c 3091 0000 		lds r19,(SecPerClus)+1
 4769 1930 4091 0000 		lds r20,(SecPerClus)+2
 4770 1934 5091 0000 		lds r21,(SecPerClus)+3
 4771 1938 00C0      		rjmp .L296
 4772               	.L289:
 4773               	.LM499:
 4774 193a 2091 0000 		lds r18,RootDirSectors
 4775 193e 3091 0000 		lds r19,(RootDirSectors)+1
 4776 1942 4091 0000 		lds r20,(RootDirSectors)+2
 4777 1946 5091 0000 		lds r21,(RootDirSectors)+3
 4778               	.L296:
 4779 194a C601      		movw r24,r12
 4780 194c B501      		movw r22,r10
 4781 194e 0E94 0000 		call __mulsi3
 4782 1952 E60E      		add r14,r22
 4783 1954 F71E      		adc r15,r23
 4784 1956 081F      		adc r16,r24
 4785 1958 191F      		adc r17,r25
 4786 195a E092 0000 		sts sFATRecordPointer+20,r14
 4787 195e F092 0000 		sts (sFATRecordPointer+20)+1,r15
 4788 1962 0093 0000 		sts (sFATRecordPointer+20)+2,r16
 4789 1966 1093 0000 		sts (sFATRecordPointer+20)+3,r17
 4790               	.LM500:
 4791 196a 12E0      		ldi r17,lo8(2)
 4792 196c C12E      		mov r12,r17
 4793 196e D12C      		mov r13,__zero_reg__
 4794 1970 CC0E      		add r12,r28
 4795 1972 DD1E      		adc r13,r29
 4796 1974 B6E0      		ldi r27,lo8(6)
 4797 1976 EB2E      		mov r14,r27
 4798 1978 F12C      		mov r15,__zero_reg__
 4799 197a EC0E      		add r14,r28
 4800 197c FD1E      		adc r15,r29
 4801 197e 8E01      		movw r16,r28
 4802 1980 0F5F      		subi r16,lo8(-(1))
 4803 1982 1F4F      		sbci r17,hi8(-(1))
 4804               	.L294:
 4805 1984 80E0      		ldi r24,lo8(0)
 4806 1986 90E0      		ldi r25,hi8(0)
 4807 1988 B601      		movw r22,r12
 4808 198a A701      		movw r20,r14
 4809 198c 9801      		movw r18,r16
 4810 198e 0E94 0000 		call FAT_GetFileSearch
 4811 1992 8823      		tst r24
 4812 1994 01F0      		breq .L291
 4813 1996 81E0      		ldi r24,lo8(1)
 4814 1998 00C0      		rjmp .L292
 4815               	.L291:
 4816               	.LM501:
 4817 199a 0E94 0000 		call FAT_NextFileSearch
 4818 199e 8823      		tst r24
 4819 19a0 01F4      		brne .L294
 4820               	.L292:
 4821               	/* epilogue start */
 4822               	.LM502:
 4823 19a2 2996      		adiw r28,9
 4824 19a4 0FB6      		in __tmp_reg__,__SREG__
 4825 19a6 F894      		cli
 4826 19a8 DEBF      		out __SP_H__,r29
 4827 19aa 0FBE      		out __SREG__,__tmp_reg__
 4828 19ac CDBF      		out __SP_L__,r28
 4829 19ae CF91      		pop r28
 4830 19b0 DF91      		pop r29
 4831 19b2 1F91      		pop r17
 4832 19b4 0F91      		pop r16
 4833 19b6 FF90      		pop r15
 4834 19b8 EF90      		pop r14
 4835 19ba DF90      		pop r13
 4836 19bc CF90      		pop r12
 4837 19be BF90      		pop r11
 4838 19c0 AF90      		pop r10
 4839 19c2 0895      		ret
 4840               	.LFE34:
 4842               	.global	FAT_EnterDirectory
 4844               	FAT_EnterDirectory:
 4845               	.LFB38:
 4846               	.LM503:
 4847               	.LVL372:
 4848 19c4 2F92      		push r2
 4849 19c6 3F92      		push r3
 4850 19c8 4F92      		push r4
 4851 19ca 5F92      		push r5
 4852 19cc 6F92      		push r6
 4853 19ce 7F92      		push r7
 4854 19d0 8F92      		push r8
 4855 19d2 9F92      		push r9
 4856 19d4 AF92      		push r10
 4857 19d6 BF92      		push r11
 4858 19d8 CF92      		push r12
 4859 19da DF92      		push r13
 4860 19dc EF92      		push r14
 4861 19de FF92      		push r15
 4862 19e0 0F93      		push r16
 4863 19e2 1F93      		push r17
 4864               	/* prologue: function */
 4865               	/* frame size = 0 */
 4866 19e4 1B01      		movw r2,r22
 4867 19e6 2C01      		movw r4,r24
 4868 19e8 6090 0000 		lds r6,BytsPerSec
 4869 19ec 7090 0000 		lds r7,(BytsPerSec)+1
 4870 19f0 8090 0000 		lds r8,(BytsPerSec)+2
 4871 19f4 9090 0000 		lds r9,(BytsPerSec)+3
 4872               	.LM504:
 4873 19f8 6115      		cp r22,__zero_reg__
 4874 19fa 7105      		cpc r23,__zero_reg__
 4875 19fc 8105      		cpc r24,__zero_reg__
 4876 19fe 9105      		cpc r25,__zero_reg__
 4877 1a00 01F4      		brne .L298
 4878               	.LM505:
 4879 1a02 E090 0000 		lds r14,FirstRootFolderAddr
 4880 1a06 F090 0000 		lds r15,(FirstRootFolderAddr)+1
 4881 1a0a 0091 0000 		lds r16,(FirstRootFolderAddr)+2
 4882 1a0e 1091 0000 		lds r17,(FirstRootFolderAddr)+3
 4883 1a12 E092 0000 		sts sFATRecordPointer,r14
 4884 1a16 F092 0000 		sts (sFATRecordPointer)+1,r15
 4885 1a1a 0093 0000 		sts (sFATRecordPointer)+2,r16
 4886 1a1e 1093 0000 		sts (sFATRecordPointer)+3,r17
 4887               	.LM506:
 4888 1a22 2091 0000 		lds r18,RootDirSectors
 4889 1a26 3091 0000 		lds r19,(RootDirSectors)+1
 4890 1a2a 4091 0000 		lds r20,(RootDirSectors)+2
 4891 1a2e 5091 0000 		lds r21,(RootDirSectors)+3
 4892 1a32 C401      		movw r24,r8
 4893 1a34 B301      		movw r22,r6
 4894               	.LVL373:
 4895 1a36 00C0      		rjmp .L301
 4896               	.LVL374:
 4897               	.L298:
 4898               	.LBB564:
 4899               	.LM507:
 4900 1a38 A090 0000 		lds r10,SecPerClus
 4901 1a3c B090 0000 		lds r11,(SecPerClus)+1
 4902 1a40 C090 0000 		lds r12,(SecPerClus)+2
 4903 1a44 D090 0000 		lds r13,(SecPerClus)+3
 4904               	.LM508:
 4905 1a48 6250      		subi r22,lo8(-(-2))
 4906 1a4a 7040      		sbci r23,hi8(-(-2))
 4907 1a4c 8040      		sbci r24,hlo8(-(-2))
 4908 1a4e 9040      		sbci r25,hhi8(-(-2))
 4909               	.LVL375:
 4910 1a50 A601      		movw r20,r12
 4911 1a52 9501      		movw r18,r10
 4912 1a54 0E94 0000 		call __mulsi3
 4913 1a58 9B01      		movw r18,r22
 4914 1a5a AC01      		movw r20,r24
 4915 1a5c 6091 0000 		lds r22,FirstDataSector
 4916 1a60 7091 0000 		lds r23,(FirstDataSector)+1
 4917 1a64 8091 0000 		lds r24,(FirstDataSector)+2
 4918 1a68 9091 0000 		lds r25,(FirstDataSector)+3
 4919 1a6c 620F      		add r22,r18
 4920 1a6e 731F      		adc r23,r19
 4921 1a70 841F      		adc r24,r20
 4922 1a72 951F      		adc r25,r21
 4923 1a74 A401      		movw r20,r8
 4924 1a76 9301      		movw r18,r6
 4925 1a78 0E94 0000 		call __mulsi3
 4926 1a7c 7B01      		movw r14,r22
 4927 1a7e 8C01      		movw r16,r24
 4928 1a80 6093 0000 		sts sFATRecordPointer,r22
 4929 1a84 7093 0000 		sts (sFATRecordPointer)+1,r23
 4930 1a88 8093 0000 		sts (sFATRecordPointer)+2,r24
 4931 1a8c 9093 0000 		sts (sFATRecordPointer)+3,r25
 4932               	.LM509:
 4933 1a90 C401      		movw r24,r8
 4934 1a92 B301      		movw r22,r6
 4935 1a94 A601      		movw r20,r12
 4936 1a96 9501      		movw r18,r10
 4937               	.L301:
 4938 1a98 0E94 0000 		call __mulsi3
 4939 1a9c E60E      		add r14,r22
 4940 1a9e F71E      		adc r15,r23
 4941 1aa0 081F      		adc r16,r24
 4942 1aa2 191F      		adc r17,r25
 4943 1aa4 E092 0000 		sts sFATRecordPointer+20,r14
 4944 1aa8 F092 0000 		sts (sFATRecordPointer+20)+1,r15
 4945 1aac 0093 0000 		sts (sFATRecordPointer+20)+2,r16
 4946 1ab0 1093 0000 		sts (sFATRecordPointer+20)+3,r17
 4947               	.LBE564:
 4948               	.LM510:
 4949 1ab4 2092 0000 		sts sFATRecordPointer+8,r2
 4950 1ab8 3092 0000 		sts (sFATRecordPointer+8)+1,r3
 4951 1abc 4092 0000 		sts (sFATRecordPointer+8)+2,r4
 4952 1ac0 5092 0000 		sts (sFATRecordPointer+8)+3,r5
 4953               	.LM511:
 4954 1ac4 2092 0000 		sts sFATRecordPointer+12,r2
 4955 1ac8 3092 0000 		sts (sFATRecordPointer+12)+1,r3
 4956 1acc 4092 0000 		sts (sFATRecordPointer+12)+2,r4
 4957 1ad0 5092 0000 		sts (sFATRecordPointer+12)+3,r5
 4958               	.LM512:
 4959 1ad4 8091 0000 		lds r24,sFATRecordPointer
 4960 1ad8 9091 0000 		lds r25,(sFATRecordPointer)+1
 4961 1adc A091 0000 		lds r26,(sFATRecordPointer)+2
 4962 1ae0 B091 0000 		lds r27,(sFATRecordPointer)+3
 4963 1ae4 8093 0000 		sts sFATRecordPointer+4,r24
 4964 1ae8 9093 0000 		sts (sFATRecordPointer+4)+1,r25
 4965 1aec A093 0000 		sts (sFATRecordPointer+4)+2,r26
 4966 1af0 B093 0000 		sts (sFATRecordPointer+4)+3,r27
 4967               	.LM513:
 4968 1af4 8093 0000 		sts sFATRecordPointer+16,r24
 4969 1af8 9093 0000 		sts (sFATRecordPointer+16)+1,r25
 4970 1afc A093 0000 		sts (sFATRecordPointer+16)+2,r26
 4971 1b00 B093 0000 		sts (sFATRecordPointer+16)+3,r27
 4972               	.LM514:
 4973 1b04 0E94 0000 		call FAT_BeginFileSearch
 4974               	/* epilogue start */
 4975               	.LM515:
 4976 1b08 1F91      		pop r17
 4977 1b0a 0F91      		pop r16
 4978 1b0c FF90      		pop r15
 4979 1b0e EF90      		pop r14
 4980 1b10 DF90      		pop r13
 4981 1b12 CF90      		pop r12
 4982 1b14 BF90      		pop r11
 4983 1b16 AF90      		pop r10
 4984 1b18 9F90      		pop r9
 4985 1b1a 8F90      		pop r8
 4986 1b1c 7F90      		pop r7
 4987 1b1e 6F90      		pop r6
 4988 1b20 5F90      		pop r5
 4989 1b22 4F90      		pop r4
 4990 1b24 3F90      		pop r3
 4991 1b26 2F90      		pop r2
 4992               	.LVL376:
 4993 1b28 0895      		ret
 4994               	.LFE38:
 4996               	.global	WaitAnyKey
 4998               	WaitAnyKey:
 4999               	.LFB47:
 5000               	.LM516:
 5001               	/* prologue: function */
 5002               	/* frame size = 0 */
 5003               	.LM517:
 5004 1b2a 88EB      		ldi r24,lo8(3000)
 5005 1b2c 9BE0      		ldi r25,hi8(3000)
 5006               	.LVL377:
 5007               	.LBB565:
 5008               	.LBB566:
 5009               	.LBB567:
 5010               	.LBB568:
 5011               	.LM518:
 5012 1b2e 20E9      		ldi r18,lo8(400)
 5013 1b30 31E0      		ldi r19,hi8(400)
 5014               	.L303:
 5015 1b32 F901      		movw r30,r18
 5016               	.LVL378:
 5017               	/* #APP */
 5018               	 ;  105 "c:/winavr-20100110/lib/gcc/../../avr/include/util/delay_basic.h" 1
 5019 1b34 3197      		1: sbiw r30,1
 5020 1b36 01F4      		brne 1b
 5021               	 ;  0 "" 2
 5022               	/* #NOAPP */
 5023               	.LBE568:
 5024               	.LBE567:
 5025               	.LM519:
 5026 1b38 0197      		sbiw r24,1
 5027               	.LM520:
 5028 1b3a 01F4      		brne .L303
 5029               	.L307:
 5030               	.LBE566:
 5031               	.LBE565:
 5032               	.LM521:
 5033 1b3c 8399      		sbic 48-32,3
 5034 1b3e 00C0      		rjmp .L306
 5035               	.LM522:
 5036 1b40 8199      		sbic 48-32,1
 5037 1b42 00C0      		rjmp .L306
 5038               	.LM523:
 5039 1b44 8299      		sbic 48-32,2
 5040 1b46 00C0      		rjmp .L306
 5041               	.LM524:
 5042 1b48 849B      		sbis 48-32,4
 5043 1b4a 00C0      		rjmp .L307
 5044               	.L306:
 5045 1b4c 0895      		ret
 5046               	.LFE47:
 5048               	.global	InitAVR
 5050               	InitAVR:
 5051               	.LFB48:
 5052               	.LM525:
 5053               	/* prologue: function */
 5054               	/* frame size = 0 */
 5055               	.LM526:
 5056               	/* #APP */
 5057               	 ;  418 "te.c" 1
 5058 1b4e F894      		cli
 5059               	 ;  0 "" 2
 5060               	.LM527:
 5061               	/* #NOAPP */
 5062 1b50 1ABA      		out 58-32,__zero_reg__
 5063               	.LM528:
 5064 1b52 17BA      		out 55-32,__zero_reg__
 5065               	.LM529:
 5066 1b54 11BA      		out 49-32,__zero_reg__
 5067               	.LM530:
 5068 1b56 14BA      		out 52-32,__zero_reg__
 5069               	.LM531:
 5070 1b58 8B98      		cbi 49-32,3
 5071               	.LM532:
 5072 1b5a 8998      		cbi 49-32,1
 5073               	.LM533:
 5074 1b5c 8A98      		cbi 49-32,2
 5075               	.LM534:
 5076 1b5e 8C98      		cbi 49-32,4
 5077               	.LM535:
 5078 1b60 889A      		sbi 49-32,0
 5079               	.LM536:
 5080 1b62 8FEF      		ldi r24,lo8(-1)
 5081 1b64 8BBB      		out 59-32,r24
 5082               	.LM537:
 5083 1b66 88BB      		out 56-32,r24
 5084               	.LM538:
 5085 1b68 82BB      		out 50-32,r24
 5086               	.LM539:
 5087 1b6a 85BB      		out 53-32,r24
 5088               	.LM540:
 5089 1b6c 83E0      		ldi r24,lo8(3)
 5090 1b6e 83BF      		out 83-32,r24
 5091               	.LM541:
 5092 1b70 12BE      		out 82-32,__zero_reg__
 5093               	.LM542:
 5094 1b72 81E0      		ldi r24,lo8(1)
 5095 1b74 89BF      		out 89-32,r24
 5096               	.LM543:
 5097 1b76 9098      		cbi 50-32,0
 5098               	/* epilogue start */
 5099               	.LM544:
 5100 1b78 0895      		ret
 5101               	.LFE48:
 5103               	.global	__vector_9
 5105               	__vector_9:
 5106               	.LFB49:
 5107               	.LM545:
 5108 1b7a 1F92      		push __zero_reg__
 5109 1b7c 0F92      		push r0
 5110 1b7e 0FB6      		in r0,__SREG__
 5111 1b80 0F92      		push r0
 5112 1b82 1124      		clr __zero_reg__
 5113 1b84 2F93      		push r18
 5114 1b86 3F93      		push r19
 5115 1b88 4F93      		push r20
 5116 1b8a 5F93      		push r21
 5117 1b8c 6F93      		push r22
 5118 1b8e 7F93      		push r23
 5119 1b90 8F93      		push r24
 5120 1b92 9F93      		push r25
 5121 1b94 AF93      		push r26
 5122 1b96 BF93      		push r27
 5123 1b98 CF93      		push r28
 5124 1b9a DF93      		push r29
 5125 1b9c EF93      		push r30
 5126 1b9e FF93      		push r31
 5127               	/* prologue: Signal */
 5128               	/* frame size = 0 */
 5129               	.LM546:
 5130 1ba0 12BE      		out 82-32,__zero_reg__
 5131               	.LM547:
 5132 1ba2 8091 0000 		lds r24,TapeOutMode
 5133 1ba6 8430      		cpi r24,lo8(4)
 5134 1ba8 01F4      		brne .L313
 5135               	.LM548:
 5136 1baa 9098      		cbi 50-32,0
 5137 1bac 00C0      		rjmp .L326
 5138               	.L313:
 5139               	.LM549:
 5140 1bae 8091 0000 		lds r24,TapeOutVolume
 5141 1bb2 8130      		cpi r24,lo8(1)
 5142 1bb4 01F4      		brne .L315
 5143               	.LM550:
 5144 1bb6 909A      		sbi 50-32,0
 5145               	.LM551:
 5146 1bb8 1092 0000 		sts TapeOutVolume,__zero_reg__
 5147 1bbc 00C0      		rjmp .L316
 5148               	.L315:
 5149               	.LM552:
 5150 1bbe 9098      		cbi 50-32,0
 5151               	.LM553:
 5152 1bc0 81E0      		ldi r24,lo8(1)
 5153 1bc2 8093 0000 		sts TapeOutVolume,r24
 5154               	.L316:
 5155               	.LM554:
 5156 1bc6 8091 0000 		lds r24,TapeOutMode
 5157 1bca 8823      		tst r24
 5158 1bcc 01F4      		brne .L317
 5159               	.LM555:
 5160 1bce 8091 0000 		lds r24,Speed
 5161 1bd2 2EE8      		ldi r18,lo8(142)
 5162 1bd4 30E0      		ldi r19,hi8(142)
 5163 1bd6 00C0      		rjmp 2f
 5164 1bd8 3595      	1:	asr r19
 5165 1bda 2795      		ror r18
 5166 1bdc 8A95      	2:	dec r24
 5167 1bde 02F4      		brpl 1b
 5168 1be0 2095      		com r18
 5169 1be2 22BF      		out 82-32,r18
 5170               	.LM556:
 5171 1be4 8091 0000 		lds r24,LeadToneCounter
 5172 1be8 9091 0000 		lds r25,(LeadToneCounter)+1
 5173 1bec 1816      		cp __zero_reg__,r24
 5174 1bee 1906      		cpc __zero_reg__,r25
 5175 1bf0 04F4      		brge .L318
 5176 1bf2 8091 0000 		lds r24,LeadToneCounter
 5177 1bf6 9091 0000 		lds r25,(LeadToneCounter)+1
 5178 1bfa 0197      		sbiw r24,1
 5179 1bfc 9093 0000 		sts (LeadToneCounter)+1,r25
 5180 1c00 8093 0000 		sts LeadToneCounter,r24
 5181 1c04 00C0      		rjmp .L317
 5182               	.L318:
 5183               	.LM557:
 5184 1c06 81E0      		ldi r24,lo8(1)
 5185 1c08 00C0      		rjmp .L328
 5186               	.L317:
 5187               	.LM558:
 5188 1c0a 8091 0000 		lds r24,TapeOutMode
 5189 1c0e 8130      		cpi r24,lo8(1)
 5190 1c10 01F4      		brne .L319
 5191               	.LM559:
 5192 1c12 8091 0000 		lds r24,Speed
 5193 1c16 2BE2      		ldi r18,lo8(43)
 5194 1c18 30E0      		ldi r19,hi8(43)
 5195 1c1a 00C0      		rjmp 2f
 5196 1c1c 3595      	1:	asr r19
 5197 1c1e 2795      		ror r18
 5198 1c20 8A95      	2:	dec r24
 5199 1c22 02F4      		brpl 1b
 5200 1c24 2095      		com r18
 5201 1c26 22BF      		out 82-32,r18
 5202               	.LM560:
 5203 1c28 82E0      		ldi r24,lo8(2)
 5204               	.L328:
 5205 1c2a 8093 0000 		sts TapeOutMode,r24
 5206 1c2e 00C0      		rjmp .L326
 5207               	.L319:
 5208               	.LM561:
 5209 1c30 8091 0000 		lds r24,TapeOutMode
 5210 1c34 8230      		cpi r24,lo8(2)
 5211 1c36 01F4      		brne .L320
 5212               	.LM562:
 5213 1c38 2091 0000 		lds r18,Speed
 5214 1c3c 80E3      		ldi r24,lo8(48)
 5215 1c3e 90E0      		ldi r25,hi8(48)
 5216 1c40 00C0      		rjmp 2f
 5217 1c42 9595      	1:	asr r25
 5218 1c44 8795      		ror r24
 5219 1c46 2A95      	2:	dec r18
 5220 1c48 02F4      		brpl 1b
 5221 1c4a 8095      		com r24
 5222 1c4c 82BF      		out 82-32,r24
 5223               	.LM563:
 5224 1c4e 83E0      		ldi r24,lo8(3)
 5225 1c50 8093 0000 		sts TapeOutMode,r24
 5226               	.LM564:
 5227 1c54 80E1      		ldi r24,lo8(16)
 5228 1c56 8093 0000 		sts index.3184,r24
 5229               	.LM565:
 5230 1c5a 1092 0000 		sts byte.3183,__zero_reg__
 5231               	.LM566:
 5232 1c5e 1092 0000 		sts (addr.3185)+1,__zero_reg__
 5233 1c62 1092 0000 		sts addr.3185,__zero_reg__
 5234 1c66 00C0      		rjmp .L326
 5235               	.L320:
 5236               	.LM567:
 5237 1c68 8091 0000 		lds r24,TapeOutMode
 5238 1c6c 8330      		cpi r24,lo8(3)
 5239 1c6e 01F0      		breq .+2
 5240 1c70 00C0      		rjmp .L326
 5241               	.LM568:
 5242 1c72 8091 0000 		lds r24,index.3184
 5243 1c76 8031      		cpi r24,lo8(16)
 5244 1c78 00F0      		brlo .L321
 5245               	.LM569:
 5246 1c7a C091 0000 		lds r28,addr.3185
 5247 1c7e D091 0000 		lds r29,(addr.3185)+1
 5248 1c82 8091 0000 		lds r24,BlockSize
 5249 1c86 9091 0000 		lds r25,(BlockSize)+1
 5250 1c8a C817      		cp r28,r24
 5251 1c8c D907      		cpc r29,r25
 5252 1c8e 00F0      		brlo .L322
 5253               	.LM570:
 5254 1c90 84E0      		ldi r24,lo8(4)
 5255 1c92 8093 0000 		sts TapeOutMode,r24
 5256               	.LM571:
 5257 1c96 1092 0000 		sts (DataCounter)+1,__zero_reg__
 5258 1c9a 1092 0000 		sts DataCounter,__zero_reg__
 5259 1c9e 00C0      		rjmp .L326
 5260               	.L322:
 5261               	.LM572:
 5262 1ca0 1092 0000 		sts index.3184,__zero_reg__
 5263               	.LM573:
 5264 1ca4 BE01      		movw r22,r28
 5265 1ca6 80E0      		ldi r24,lo8(0)
 5266 1ca8 90E0      		ldi r25,hi8(0)
 5267 1caa 0E94 0000 		call DRAM_ReadByte
 5268 1cae 8093 0000 		sts byte.3183,r24
 5269               	.LM574:
 5270 1cb2 CE01      		movw r24,r28
 5271 1cb4 0196      		adiw r24,1
 5272 1cb6 9093 0000 		sts (addr.3185)+1,r25
 5273 1cba 8093 0000 		sts addr.3185,r24
 5274               	.LM575:
 5275 1cbe 9093 0000 		sts (DataCounter)+1,r25
 5276 1cc2 8093 0000 		sts DataCounter,r24
 5277               	.L321:
 5278               	.LM576:
 5279 1cc6 3091 0000 		lds r19,byte.3183
 5280 1cca 37FF      		sbrs r19,7
 5281 1ccc 00C0      		rjmp .L323
 5282 1cce 2091 0000 		lds r18,Speed
 5283 1cd2 80E7      		ldi r24,lo8(112)
 5284 1cd4 90E0      		ldi r25,hi8(112)
 5285 1cd6 00C0      		rjmp .L327
 5286               	.L323:
 5287               	.LM577:
 5288 1cd8 2091 0000 		lds r18,Speed
 5289 1cdc 88E3      		ldi r24,lo8(56)
 5290 1cde 90E0      		ldi r25,hi8(56)
 5291               	.L327:
 5292 1ce0 00C0      		rjmp 2f
 5293 1ce2 9595      	1:	asr r25
 5294 1ce4 8795      		ror r24
 5295 1ce6 2A95      	2:	dec r18
 5296 1ce8 02F4      		brpl 1b
 5297 1cea 8095      		com r24
 5298 1cec 82BF      		out 82-32,r24
 5299               	.LM578:
 5300 1cee 8091 0000 		lds r24,index.3184
 5301 1cf2 80FF      		sbrs r24,0
 5302 1cf4 00C0      		rjmp .L325
 5303 1cf6 330F      		lsl r19
 5304 1cf8 3093 0000 		sts byte.3183,r19
 5305               	.L325:
 5306               	.LM579:
 5307 1cfc 8F5F      		subi r24,lo8(-(1))
 5308 1cfe 8093 0000 		sts index.3184,r24
 5309               	.L326:
 5310               	/* epilogue start */
 5311               	.LM580:
 5312 1d02 FF91      		pop r31
 5313 1d04 EF91      		pop r30
 5314 1d06 DF91      		pop r29
 5315 1d08 CF91      		pop r28
 5316 1d0a BF91      		pop r27
 5317 1d0c AF91      		pop r26
 5318 1d0e 9F91      		pop r25
 5319 1d10 8F91      		pop r24
 5320 1d12 7F91      		pop r23
 5321 1d14 6F91      		pop r22
 5322 1d16 5F91      		pop r21
 5323 1d18 4F91      		pop r20
 5324 1d1a 3F91      		pop r19
 5325 1d1c 2F91      		pop r18
 5326 1d1e 0F90      		pop r0
 5327 1d20 0FBE      		out __SREG__,r0
 5328 1d22 0F90      		pop r0
 5329 1d24 1F90      		pop __zero_reg__
 5330 1d26 1895      		reti
 5331               	.LFE49:
 5333               		.data
 5334               	.LC0:
 5335 0000 426C 6F63 		.string	"Block:%u [%u]"
 5335      6B3A 2575 
 5335      205B 2575 
 5335      5D00 
 5336               	.LC1:
 5337 000e 426C 6F63 		.string	"Block:%u [0]"
 5337      6B3A 2575 
 5337      205B 305D 
 5337      00
 5338               		.text
 5339               	.global	OutputImage
 5341               	OutputImage:
 5342               	.LFB46:
 5343               	.LM581:
 5344 1d28 2F92      		push r2
 5345 1d2a 3F92      		push r3
 5346 1d2c 4F92      		push r4
 5347 1d2e 5F92      		push r5
 5348 1d30 6F92      		push r6
 5349 1d32 7F92      		push r7
 5350 1d34 8F92      		push r8
 5351 1d36 9F92      		push r9
 5352 1d38 AF92      		push r10
 5353 1d3a BF92      		push r11
 5354 1d3c CF92      		push r12
 5355 1d3e DF92      		push r13
 5356 1d40 EF92      		push r14
 5357 1d42 FF92      		push r15
 5358 1d44 0F93      		push r16
 5359 1d46 1F93      		push r17
 5360 1d48 CF93      		push r28
 5361 1d4a DF93      		push r29
 5362               	/* prologue: function */
 5363               	/* frame size = 0 */
 5364               	.LM582:
 5365 1d4c 88E8      		ldi r24,lo8(5000)
 5366 1d4e 93E1      		ldi r25,hi8(5000)
 5367               	.LBB569:
 5368               	.LBB570:
 5369               	.LBB571:
 5370               	.LBB572:
 5371               	.LM583:
 5372 1d50 20E9      		ldi r18,lo8(400)
 5373 1d52 31E0      		ldi r19,hi8(400)
 5374               	.L330:
 5375 1d54 F901      		movw r30,r18
 5376               	/* #APP */
 5377               	 ;  105 "c:/winavr-20100110/lib/gcc/../../avr/include/util/delay_basic.h" 1
 5378 1d56 3197      		1: sbiw r30,1
 5379 1d58 01F4      		brne 1b
 5380               	 ;  0 "" 2
 5381               	/* #NOAPP */
 5382               	.LBE572:
 5383               	.LBE571:
 5384               	.LM584:
 5385 1d5a 0197      		sbiw r24,1
 5386               	.LM585:
 5387 1d5c 01F4      		brne .L330
 5388 1d5e 00E0      		ldi r16,lo8(0)
 5389 1d60 10E0      		ldi r17,hi8(0)
 5390               	.LBE570:
 5391               	.LBE569:
 5392               	.LBB573:
 5393               	.LM586:
 5394 1d62 50E0      		ldi r21,lo8(string)
 5395 1d64 A52E      		mov r10,r21
 5396 1d66 50E0      		ldi r21,hi8(string)
 5397 1d68 B52E      		mov r11,r21
 5398 1d6a 40E0      		ldi r20,lo8(.LC0)
 5399 1d6c 842E      		mov r8,r20
 5400 1d6e 40E0      		ldi r20,hi8(.LC0)
 5401 1d70 942E      		mov r9,r20
 5402               	.LM587:
 5403 1d72 30E7      		ldi r19,lo8(6000)
 5404 1d74 232E      		mov r2,r19
 5405 1d76 37E1      		ldi r19,hi8(6000)
 5406 1d78 332E      		mov r3,r19
 5407               	.LBB574:
 5408               	.LBB602:
 5409               	.LBB603:
 5410               	.LBB604:
 5411               	.LBB605:
 5412               	.LM588:
 5413 1d7a 20E9      		ldi r18,lo8(400)
 5414 1d7c E22E      		mov r14,r18
 5415 1d7e 21E0      		ldi r18,hi8(400)
 5416 1d80 F22E      		mov r15,r18
 5417               	.LBE605:
 5418               	.LBE604:
 5419               	.LBE603:
 5420               	.LBE602:
 5421               	.LBB575:
 5422               	.LM589:
 5423 1d82 90E0      		ldi r25,lo8(.LC1)
 5424 1d84 492E      		mov r4,r25
 5425 1d86 90E0      		ldi r25,hi8(.LC1)
 5426 1d88 592E      		mov r5,r25
 5427               	.LBB576:
 5428               	.LBB577:
 5429               	.LBB578:
 5430               	.LBB579:
 5431               	.LBB580:
 5432               	.LM590:
 5433 1d8a 80E4      		ldi r24,lo8(-25536)
 5434 1d8c 682E      		mov r6,r24
 5435 1d8e 8CE9      		ldi r24,hi8(-25536)
 5436 1d90 782E      		mov r7,r24
 5437               	.L360:
 5438               	.LBE580:
 5439               	.LBE579:
 5440               	.LBE578:
 5441               	.LBE577:
 5442               	.LBE576:
 5443               	.LBE575:
 5444               	.LBE574:
 5445               	.LM591:
 5446 1d92 80E0      		ldi r24,lo8(BlockSize)
 5447 1d94 90E0      		ldi r25,hi8(BlockSize)
 5448 1d96 B801      		movw r22,r16
 5449 1d98 0E94 0000 		call FAT_WriteBlock
 5450 1d9c 8823      		tst r24
 5451 1d9e 01F4      		brne .+2
 5452 1da0 00C0      		rjmp .L331
 5453               	.LM592:
 5454 1da2 6801      		movw r12,r16
 5455 1da4 0894      		sec
 5456 1da6 C11C      		adc r12,__zero_reg__
 5457 1da8 D11C      		adc r13,__zero_reg__
 5458 1daa 2DB7      		in r18,__SP_L__
 5459 1dac 3EB7      		in r19,__SP_H__
 5460 1dae 2850      		subi r18,lo8(-(-8))
 5461 1db0 3040      		sbci r19,hi8(-(-8))
 5462 1db2 0FB6      		in __tmp_reg__,__SREG__
 5463 1db4 F894      		cli
 5464 1db6 3EBF      		out __SP_H__,r19
 5465 1db8 0FBE      		out __SREG__,__tmp_reg__
 5466 1dba 2DBF      		out __SP_L__,r18
 5467 1dbc EDB7      		in r30,__SP_L__
 5468 1dbe FEB7      		in r31,__SP_H__
 5469 1dc0 3196      		adiw r30,1
 5470 1dc2 ADB7      		in r26,__SP_L__
 5471 1dc4 BEB7      		in r27,__SP_H__
 5472 1dc6 1296      		adiw r26,1+1
 5473 1dc8 BC92      		st X,r11
 5474 1dca AE92      		st -X,r10
 5475 1dcc 1197      		sbiw r26,1
 5476 1dce 9382      		std Z+3,r9
 5477 1dd0 8282      		std Z+2,r8
 5478 1dd2 D582      		std Z+5,r13
 5479 1dd4 C482      		std Z+4,r12
 5480 1dd6 8091 0000 		lds r24,BlockSize
 5481 1dda 9091 0000 		lds r25,(BlockSize)+1
 5482 1dde 9783      		std Z+7,r25
 5483 1de0 8683      		std Z+6,r24
 5484 1de2 0E94 0000 		call sprintf
 5485               	.LM593:
 5486 1de6 2DB7      		in r18,__SP_L__
 5487 1de8 3EB7      		in r19,__SP_H__
 5488 1dea 285F      		subi r18,lo8(-(8))
 5489 1dec 3F4F      		sbci r19,hi8(-(8))
 5490 1dee 0FB6      		in __tmp_reg__,__SREG__
 5491 1df0 F894      		cli
 5492 1df2 3EBF      		out __SP_H__,r19
 5493 1df4 0FBE      		out __SREG__,__tmp_reg__
 5494 1df6 2DBF      		out __SP_L__,r18
 5495 1df8 C501      		movw r24,r10
 5496 1dfa 0E94 0000 		call WH1602_SetTextUpLine
 5497               	.LM594:
 5498 1dfe 12BE      		out 82-32,__zero_reg__
 5499               	.LM595:
 5500 1e00 8091 0000 		lds r24,Speed
 5501 1e04 D101      		movw r26,r2
 5502 1e06 00C0      		rjmp 2f
 5503 1e08 AA0F      	1:	lsl r26
 5504 1e0a BB1F      		rol r27
 5505 1e0c 8A95      	2:	dec r24
 5506 1e0e 02F4      		brpl 1b
 5507 1e10 B093 0000 		sts (LeadToneCounter)+1,r27
 5508 1e14 A093 0000 		sts LeadToneCounter,r26
 5509               	.LM596:
 5510 1e18 1092 0000 		sts TapeOutMode,__zero_reg__
 5511               	.LM597:
 5512 1e1c 1092 0000 		sts TapeOutVolume,__zero_reg__
 5513               	.LM598:
 5514 1e20 1092 0000 		sts (DataCounter)+1,__zero_reg__
 5515 1e24 1092 0000 		sts DataCounter,__zero_reg__
 5516               	.LM599:
 5517               	/* #APP */
 5518               	 ;  304 "te.c" 1
 5519 1e28 7894      		sei
 5520               	 ;  0 "" 2
 5521               	/* #NOAPP */
 5522 1e2a C0E0      		ldi r28,lo8(0)
 5523 1e2c D0E0      		ldi r29,hi8(0)
 5524               	.L358:
 5525               	.LBB627:
 5526               	.LM600:
 5527               	/* #APP */
 5528               	 ;  307 "te.c" 1
 5529 1e2e F894      		cli
 5530               	 ;  0 "" 2
 5531               	.LM601:
 5532               	/* #NOAPP */
 5533 1e30 0E94 0000 		call DRAM_Refresh
 5534               	.LM602:
 5535 1e34 8091 0000 		lds r24,TapeOutMode
 5536 1e38 8430      		cpi r24,lo8(4)
 5537 1e3a 01F0      		breq .+2
 5538 1e3c 00C0      		rjmp .L332
 5539               	.LBB609:
 5540               	.LM603:
 5541 1e3e 00D0      		rcall .
 5542 1e40 00D0      		rcall .
 5543 1e42 00D0      		rcall .
 5544 1e44 EDB7      		in r30,__SP_L__
 5545 1e46 FEB7      		in r31,__SP_H__
 5546 1e48 3196      		adiw r30,1
 5547 1e4a ADB7      		in r26,__SP_L__
 5548 1e4c BEB7      		in r27,__SP_H__
 5549 1e4e 1296      		adiw r26,1+1
 5550 1e50 BC92      		st X,r11
 5551 1e52 AE92      		st -X,r10
 5552 1e54 1197      		sbiw r26,1
 5553 1e56 5382      		std Z+3,r5
 5554 1e58 4282      		std Z+2,r4
 5555 1e5a D582      		std Z+5,r13
 5556 1e5c C482      		std Z+4,r12
 5557 1e5e 0E94 0000 		call sprintf
 5558               	.LM604:
 5559 1e62 2DB7      		in r18,__SP_L__
 5560 1e64 3EB7      		in r19,__SP_H__
 5561 1e66 2A5F      		subi r18,lo8(-(6))
 5562 1e68 3F4F      		sbci r19,hi8(-(6))
 5563 1e6a 0FB6      		in __tmp_reg__,__SREG__
 5564 1e6c F894      		cli
 5565 1e6e 3EBF      		out __SP_H__,r19
 5566 1e70 0FBE      		out __SREG__,__tmp_reg__
 5567 1e72 2DBF      		out __SP_L__,r18
 5568 1e74 C501      		movw r24,r10
 5569 1e76 0E94 0000 		call WH1602_SetTextUpLine
 5570               	.LM605:
 5571 1e7a 8091 0000 		lds r24,BlockSize
 5572 1e7e 9091 0000 		lds r25,(BlockSize)+1
 5573 1e82 4497      		sbiw r24,20
 5574 1e84 00F0      		brlo .L333
 5575 1e86 44EF      		ldi r20,lo8(500)
 5576 1e88 51E0      		ldi r21,hi8(500)
 5577 1e8a 00C0      		rjmp .L334
 5578               	.L333:
 5579 1e8c 48EC      		ldi r20,lo8(200)
 5580 1e8e 50E0      		ldi r21,hi8(200)
 5581               	.L334:
 5582 1e90 20E0      		ldi r18,lo8(0)
 5583 1e92 30E0      		ldi r19,hi8(0)
 5584 1e94 00C0      		rjmp .L335
 5585               	.L348:
 5586               	.LBB601:
 5587               	.LBB584:
 5588               	.LBB583:
 5589               	.LBB582:
 5590               	.LBB581:
 5591               	.LM606:
 5592 1e96 C301      		movw r24,r6
 5593               	/* #APP */
 5594               	 ;  105 "c:/winavr-20100110/lib/gcc/../../avr/include/util/delay_basic.h" 1
 5595 1e98 0197      		1: sbiw r24,1
 5596 1e9a 01F4      		brne 1b
 5597               	 ;  0 "" 2
 5598               	/* #NOAPP */
 5599               	.LBE581:
 5600               	.LBE582:
 5601               	.LBE583:
 5602               	.LBE584:
 5603               	.LM607:
 5604 1e9c 8499      		sbic 48-32,4
 5605 1e9e 00C0      		rjmp .L331
 5606               	.L336:
 5607               	.LM608:
 5608 1ea0 829B      		sbis 48-32,2
 5609 1ea2 00C0      		rjmp .L338
 5610 1ea4 80ED      		ldi r24,lo8(2000)
 5611 1ea6 97E0      		ldi r25,hi8(2000)
 5612               	.L339:
 5613               	.LBB585:
 5614               	.LBB586:
 5615               	.LBB587:
 5616               	.LBB588:
 5617               	.LM609:
 5618 1ea8 F701      		movw r30,r14
 5619               	/* #APP */
 5620               	 ;  105 "c:/winavr-20100110/lib/gcc/../../avr/include/util/delay_basic.h" 1
 5621 1eaa 3197      		1: sbiw r30,1
 5622 1eac 01F4      		brne 1b
 5623               	 ;  0 "" 2
 5624               	/* #NOAPP */
 5625               	.LBE588:
 5626               	.LBE587:
 5627               	.LM610:
 5628 1eae 0197      		sbiw r24,1
 5629               	.LM611:
 5630 1eb0 01F4      		brne .L339
 5631               	.L362:
 5632               	.LBE586:
 5633               	.LBE585:
 5634               	.LM612:
 5635 1eb2 829B      		sbis 48-32,2
 5636 1eb4 00C0      		rjmp .L362
 5637 1eb6 80ED      		ldi r24,lo8(2000)
 5638 1eb8 97E0      		ldi r25,hi8(2000)
 5639               	.L341:
 5640               	.LBB589:
 5641               	.LBB590:
 5642               	.LBB591:
 5643               	.LBB592:
 5644               	.LM613:
 5645 1eba F701      		movw r30,r14
 5646               	/* #APP */
 5647               	 ;  105 "c:/winavr-20100110/lib/gcc/../../avr/include/util/delay_basic.h" 1
 5648 1ebc 3197      		1: sbiw r30,1
 5649 1ebe 01F4      		brne 1b
 5650               	 ;  0 "" 2
 5651               	/* #NOAPP */
 5652               	.LBE592:
 5653               	.LBE591:
 5654               	.LM614:
 5655 1ec0 0197      		sbiw r24,1
 5656               	.LM615:
 5657 1ec2 01F4      		brne .L341
 5658               	.L338:
 5659               	.LBE590:
 5660               	.LBE589:
 5661               	.LM616:
 5662 1ec4 839B      		sbis 48-32,3
 5663 1ec6 00C0      		rjmp .L342
 5664 1ec8 80ED      		ldi r24,lo8(2000)
 5665 1eca 97E0      		ldi r25,hi8(2000)
 5666               	.L343:
 5667               	.LBB593:
 5668               	.LBB594:
 5669               	.LBB595:
 5670               	.LBB596:
 5671               	.LM617:
 5672 1ecc F701      		movw r30,r14
 5673               	/* #APP */
 5674               	 ;  105 "c:/winavr-20100110/lib/gcc/../../avr/include/util/delay_basic.h" 1
 5675 1ece 3197      		1: sbiw r30,1
 5676 1ed0 01F4      		brne 1b
 5677               	 ;  0 "" 2
 5678               	/* #NOAPP */
 5679               	.LBE596:
 5680               	.LBE595:
 5681               	.LM618:
 5682 1ed2 0197      		sbiw r24,1
 5683               	.LM619:
 5684 1ed4 01F4      		brne .L343
 5685 1ed6 00C0      		rjmp .L344
 5686               	.L342:
 5687               	.LBE594:
 5688               	.LBE593:
 5689               	.LM620:
 5690 1ed8 819B      		sbis 48-32,1
 5691 1eda 00C0      		rjmp .L345
 5692 1edc 80ED      		ldi r24,lo8(2000)
 5693 1ede 97E0      		ldi r25,hi8(2000)
 5694               	.L346:
 5695               	.LBB597:
 5696               	.LBB598:
 5697               	.LBB599:
 5698               	.LBB600:
 5699               	.LM621:
 5700 1ee0 F701      		movw r30,r14
 5701               	/* #APP */
 5702               	 ;  105 "c:/winavr-20100110/lib/gcc/../../avr/include/util/delay_basic.h" 1
 5703 1ee2 3197      		1: sbiw r30,1
 5704 1ee4 01F4      		brne 1b
 5705               	 ;  0 "" 2
 5706               	/* #NOAPP */
 5707               	.LBE600:
 5708               	.LBE599:
 5709               	.LM622:
 5710 1ee6 0197      		sbiw r24,1
 5711               	.LM623:
 5712 1ee8 01F4      		brne .L346
 5713               	.LBE598:
 5714               	.LBE597:
 5715               	.LM624:
 5716 1eea 0115      		cp r16,__zero_reg__
 5717 1eec 1105      		cpc r17,__zero_reg__
 5718 1eee 01F4      		brne .+2
 5719 1ef0 00C0      		rjmp .L344
 5720 1ef2 00C0      		rjmp .L376
 5721               	.L345:
 5722               	.LM625:
 5723 1ef4 2F5F      		subi r18,lo8(-(1))
 5724 1ef6 3F4F      		sbci r19,hi8(-(1))
 5725               	.L335:
 5726 1ef8 2417      		cp r18,r20
 5727 1efa 3507      		cpc r19,r21
 5728 1efc 00F4      		brsh .+2
 5729 1efe 00C0      		rjmp .L348
 5730 1f00 00C0      		rjmp .L344
 5731               	.L332:
 5732               	.LBE601:
 5733               	.LBE609:
 5734               	.LM626:
 5735 1f02 2091 0000 		lds r18,BlockSize
 5736 1f06 3091 0000 		lds r19,(BlockSize)+1
 5737 1f0a 4091 0000 		lds r20,DataCounter
 5738 1f0e 5091 0000 		lds r21,(DataCounter)+1
 5739               	.LM627:
 5740 1f12 8091 0000 		lds r24,TapeOutMode
 5741               	.LM628:
 5742               	/* #APP */
 5743               	 ;  352 "te.c" 1
 5744 1f16 7894      		sei
 5745               	 ;  0 "" 2
 5746               	.LM629:
 5747               	/* #NOAPP */
 5748 1f18 8330      		cpi r24,lo8(3)
 5749 1f1a 01F4      		brne .L349
 5750               	.LM630:
 5751 1f1c 85E7      		ldi r24,hi8(30000)
 5752 1f1e C033      		cpi r28,lo8(30000)
 5753 1f20 D807      		cpc r29,r24
 5754 1f22 01F4      		brne .L350
 5755               	.LM631:
 5756 1f24 ADB7      		in r26,__SP_L__
 5757 1f26 BEB7      		in r27,__SP_H__
 5758 1f28 1897      		sbiw r26,8
 5759 1f2a 0FB6      		in __tmp_reg__,__SREG__
 5760 1f2c F894      		cli
 5761 1f2e BEBF      		out __SP_H__,r27
 5762 1f30 0FBE      		out __SREG__,__tmp_reg__
 5763 1f32 ADBF      		out __SP_L__,r26
 5764 1f34 EDB7      		in r30,__SP_L__
 5765 1f36 FEB7      		in r31,__SP_H__
 5766 1f38 3196      		adiw r30,1
 5767 1f3a 1296      		adiw r26,1+1
 5768 1f3c BC92      		st X,r11
 5769 1f3e AE92      		st -X,r10
 5770 1f40 1197      		sbiw r26,1
 5771 1f42 9382      		std Z+3,r9
 5772 1f44 8282      		std Z+2,r8
 5773 1f46 D582      		std Z+5,r13
 5774 1f48 C482      		std Z+4,r12
 5775 1f4a 241B      		sub r18,r20
 5776 1f4c 350B      		sbc r19,r21
 5777 1f4e 3783      		std Z+7,r19
 5778 1f50 2683      		std Z+6,r18
 5779 1f52 0E94 0000 		call sprintf
 5780               	.LM632:
 5781 1f56 2DB7      		in r18,__SP_L__
 5782 1f58 3EB7      		in r19,__SP_H__
 5783 1f5a 285F      		subi r18,lo8(-(8))
 5784 1f5c 3F4F      		sbci r19,hi8(-(8))
 5785 1f5e 0FB6      		in __tmp_reg__,__SREG__
 5786 1f60 F894      		cli
 5787 1f62 3EBF      		out __SP_H__,r19
 5788 1f64 0FBE      		out __SREG__,__tmp_reg__
 5789 1f66 2DBF      		out __SP_L__,r18
 5790 1f68 C501      		movw r24,r10
 5791 1f6a 0E94 0000 		call WH1602_SetTextUpLine
 5792 1f6e C0E0      		ldi r28,lo8(0)
 5793 1f70 D0E0      		ldi r29,hi8(0)
 5794 1f72 00C0      		rjmp .L349
 5795               	.L350:
 5796               	.LM633:
 5797 1f74 2196      		adiw r28,1
 5798               	.L349:
 5799               	.LBB610:
 5800               	.LBB611:
 5801               	.LBB612:
 5802               	.LBB613:
 5803               	.LM634:
 5804 1f76 85E3      		ldi r24,lo8(53)
 5805               	/* #APP */
 5806               	 ;  83 "c:/winavr-20100110/lib/gcc/../../avr/include/util/delay_basic.h" 1
 5807 1f78 8A95      		1: dec r24
 5808 1f7a 01F4      		brne 1b
 5809               	 ;  0 "" 2
 5810               	/* #NOAPP */
 5811               	.LBE613:
 5812               	.LBE612:
 5813               	.LBE611:
 5814               	.LBE610:
 5815               	.LM635:
 5816 1f7c 849B      		sbis 48-32,4
 5817 1f7e 00C0      		rjmp .L351
 5818               	.LM636:
 5819               	/* #APP */
 5820               	 ;  366 "te.c" 1
 5821 1f80 F894      		cli
 5822               	 ;  0 "" 2
 5823               	/* #NOAPP */
 5824 1f82 00C0      		rjmp .L331
 5825               	.L351:
 5826               	.LM637:
 5827 1f84 829B      		sbis 48-32,2
 5828 1f86 00C0      		rjmp .L352
 5829               	.LM638:
 5830               	/* #APP */
 5831               	 ;  372 "te.c" 1
 5832 1f88 F894      		cli
 5833               	 ;  0 "" 2
 5834               	/* #NOAPP */
 5835 1f8a 80ED      		ldi r24,lo8(2000)
 5836 1f8c 97E0      		ldi r25,hi8(2000)
 5837               	.L353:
 5838               	.LBB614:
 5839               	.LBB608:
 5840               	.LBB607:
 5841               	.LBB606:
 5842               	.LM639:
 5843 1f8e F701      		movw r30,r14
 5844               	/* #APP */
 5845               	 ;  105 "c:/winavr-20100110/lib/gcc/../../avr/include/util/delay_basic.h" 1
 5846 1f90 3197      		1: sbiw r30,1
 5847 1f92 01F4      		brne 1b
 5848               	 ;  0 "" 2
 5849               	/* #NOAPP */
 5850               	.LBE606:
 5851               	.LBE607:
 5852               	.LM640:
 5853 1f94 0197      		sbiw r24,1
 5854               	.LM641:
 5855 1f96 01F4      		brne .L353
 5856               	.L363:
 5857               	.LBE608:
 5858               	.LBE614:
 5859               	.LM642:
 5860 1f98 829B      		sbis 48-32,2
 5861 1f9a 00C0      		rjmp .L363
 5862               	.LM643:
 5863               	/* #APP */
 5864               	 ;  378 "te.c" 1
 5865 1f9c 7894      		sei
 5866               	 ;  0 "" 2
 5867               	/* #NOAPP */
 5868 1f9e 80ED      		ldi r24,lo8(2000)
 5869 1fa0 97E0      		ldi r25,hi8(2000)
 5870               	.L355:
 5871               	.LBB615:
 5872               	.LBB616:
 5873               	.LBB617:
 5874               	.LBB618:
 5875               	.LM644:
 5876 1fa2 F701      		movw r30,r14
 5877               	/* #APP */
 5878               	 ;  105 "c:/winavr-20100110/lib/gcc/../../avr/include/util/delay_basic.h" 1
 5879 1fa4 3197      		1: sbiw r30,1
 5880 1fa6 01F4      		brne 1b
 5881               	 ;  0 "" 2
 5882               	/* #NOAPP */
 5883               	.LBE618:
 5884               	.LBE617:
 5885               	.LM645:
 5886 1fa8 0197      		sbiw r24,1
 5887               	.LM646:
 5888 1faa 01F4      		brne .L355
 5889               	.L352:
 5890               	.LBE616:
 5891               	.LBE615:
 5892               	.LM647:
 5893 1fac 839B      		sbis 48-32,3
 5894 1fae 00C0      		rjmp .L356
 5895 1fb0 80ED      		ldi r24,lo8(2000)
 5896 1fb2 97E0      		ldi r25,hi8(2000)
 5897               	.L357:
 5898               	.LBB619:
 5899               	.LBB620:
 5900               	.LBB621:
 5901               	.LBB622:
 5902               	.LM648:
 5903 1fb4 F701      		movw r30,r14
 5904               	/* #APP */
 5905               	 ;  105 "c:/winavr-20100110/lib/gcc/../../avr/include/util/delay_basic.h" 1
 5906 1fb6 3197      		1: sbiw r30,1
 5907 1fb8 01F4      		brne 1b
 5908               	 ;  0 "" 2
 5909               	/* #NOAPP */
 5910               	.LBE622:
 5911               	.LBE621:
 5912               	.LM649:
 5913 1fba 0197      		sbiw r24,1
 5914               	.LM650:
 5915 1fbc 01F4      		brne .L357
 5916 1fbe 00C0      		rjmp .L344
 5917               	.L356:
 5918               	.LBE620:
 5919               	.LBE619:
 5920               	.LM651:
 5921 1fc0 819B      		sbis 48-32,1
 5922 1fc2 00C0      		rjmp .L358
 5923 1fc4 80ED      		ldi r24,lo8(2000)
 5924 1fc6 97E0      		ldi r25,hi8(2000)
 5925               	.L359:
 5926               	.LBB623:
 5927               	.LBB624:
 5928               	.LBB625:
 5929               	.LBB626:
 5930               	.LM652:
 5931 1fc8 F701      		movw r30,r14
 5932               	/* #APP */
 5933               	 ;  105 "c:/winavr-20100110/lib/gcc/../../avr/include/util/delay_basic.h" 1
 5934 1fca 3197      		1: sbiw r30,1
 5935 1fcc 01F4      		brne 1b
 5936               	 ;  0 "" 2
 5937               	/* #NOAPP */
 5938               	.LBE626:
 5939               	.LBE625:
 5940               	.LM653:
 5941 1fce 0197      		sbiw r24,1
 5942               	.LM654:
 5943 1fd0 01F4      		brne .L359
 5944               	.LBE624:
 5945               	.LBE623:
 5946               	.LM655:
 5947 1fd2 0115      		cp r16,__zero_reg__
 5948 1fd4 1105      		cpc r17,__zero_reg__
 5949 1fd6 01F0      		breq .L347
 5950               	.L376:
 5951 1fd8 0150      		subi r16,lo8(-(-1))
 5952 1fda 1040      		sbci r17,hi8(-(-1))
 5953 1fdc 00C0      		rjmp .L347
 5954               	.L344:
 5955 1fde 8601      		movw r16,r12
 5956               	.L347:
 5957               	.LBE627:
 5958               	.LM656:
 5959               	/* #APP */
 5960               	 ;  395 "te.c" 1
 5961 1fe0 F894      		cli
 5962               	 ;  0 "" 2
 5963               	/* #NOAPP */
 5964 1fe2 00C0      		rjmp .L360
 5965               	.L331:
 5966               	.LBE573:
 5967               	.LM657:
 5968 1fe4 9098      		cbi 50-32,0
 5969               	/* epilogue start */
 5970               	.LM658:
 5971 1fe6 DF91      		pop r29
 5972 1fe8 CF91      		pop r28
 5973 1fea 1F91      		pop r17
 5974 1fec 0F91      		pop r16
 5975 1fee FF90      		pop r15
 5976 1ff0 EF90      		pop r14
 5977 1ff2 DF90      		pop r13
 5978 1ff4 CF90      		pop r12
 5979 1ff6 BF90      		pop r11
 5980 1ff8 AF90      		pop r10
 5981 1ffa 9F90      		pop r9
 5982 1ffc 8F90      		pop r8
 5983 1ffe 7F90      		pop r7
 5984 2000 6F90      		pop r6
 5985 2002 5F90      		pop r5
 5986 2004 4F90      		pop r4
 5987 2006 3F90      		pop r3
 5988 2008 2F90      		pop r2
 5989 200a 0895      		ret
 5990               	.LFE46:
 5992               		.data
 5993               	.LC2:
 5994 001b 5072 6F67 		.string	"Progress:%i %%"
 5994      7265 7373 
 5994      3A25 6920 
 5994      2525 00
 5995               	.LC3:
 5996 002a 2530 3578 		.string	"%05x = [%02x , %02x]"
 5996      203D 205B 
 5996      2530 3278 
 5996      202C 2025 
 5996      3032 785D 
 5997               	.LC4:
 5998 003f 00        		.string	""
 5999               		.text
 6000               	.global	MemoryTest
 6002               	MemoryTest:
 6003               	.LFB45:
 6004               	.LM659:
 6005 200c 4F92      		push r4
 6006 200e 5F92      		push r5
 6007 2010 6F92      		push r6
 6008 2012 7F92      		push r7
 6009 2014 8F92      		push r8
 6010 2016 9F92      		push r9
 6011 2018 AF92      		push r10
 6012 201a BF92      		push r11
 6013 201c CF92      		push r12
 6014 201e DF92      		push r13
 6015 2020 EF92      		push r14
 6016 2022 FF92      		push r15
 6017 2024 0F93      		push r16
 6018 2026 1F93      		push r17
 6019 2028 CF93      		push r28
 6020 202a DF93      		push r29
 6021               	/* prologue: function */
 6022               	/* frame size = 0 */
 6023               	.LM660:
 6024 202c 80E0      		ldi r24,lo8(Text_Main_Memory_Test)
 6025 202e 90E0      		ldi r25,hi8(Text_Main_Memory_Test)
 6026 2030 0E94 0000 		call WH1602_SetTextProgmemUpLine
 6027 2034 1FEF      		ldi r17,lo8(-1)
 6028 2036 CC24      		clr r12
 6029 2038 DD24      		clr r13
 6030 203a 7601      		movw r14,r12
 6031 203c 8824      		clr r8
 6032 203e 9924      		clr r9
 6033 2040 5401      		movw r10,r8
 6034               	.LBB628:
 6035               	.LBB629:
 6036               	.LM661:
 6037 2042 C0E0      		ldi r28,lo8(string)
 6038 2044 D0E0      		ldi r29,hi8(string)
 6039 2046 60E0      		ldi r22,lo8(.LC2)
 6040 2048 462E      		mov r4,r22
 6041 204a 60E0      		ldi r22,hi8(.LC2)
 6042 204c 562E      		mov r5,r22
 6043               	.L384:
 6044               	.LM662:
 6045 204e C501      		movw r24,r10
 6046 2050 B401      		movw r22,r8
 6047 2052 2FEF      		ldi r18,lo8(131071)
 6048 2054 3FEF      		ldi r19,hi8(131071)
 6049 2056 41E0      		ldi r20,hlo8(131071)
 6050 2058 50E0      		ldi r21,hhi8(131071)
 6051 205a 0E94 0000 		call __udivmodsi4
 6052 205e 722E      		mov r7,r18
 6053               	.LM663:
 6054 2060 2117      		cp r18,r17
 6055 2062 01F0      		breq .L378
 6056               	.LM664:
 6057 2064 00D0      		rcall .
 6058 2066 00D0      		rcall .
 6059 2068 00D0      		rcall .
 6060 206a EDB7      		in r30,__SP_L__
 6061 206c FEB7      		in r31,__SP_H__
 6062 206e 3196      		adiw r30,1
 6063 2070 ADB7      		in r26,__SP_L__
 6064 2072 BEB7      		in r27,__SP_H__
 6065 2074 1296      		adiw r26,1+1
 6066 2076 DC93      		st X,r29
 6067 2078 CE93      		st -X,r28
 6068 207a 1197      		sbiw r26,1
 6069 207c 5382      		std Z+3,r5
 6070 207e 4282      		std Z+2,r4
 6071 2080 2483      		std Z+4,r18
 6072 2082 1582      		std Z+5,__zero_reg__
 6073 2084 0E94 0000 		call sprintf
 6074               	.LM665:
 6075 2088 8DB7      		in r24,__SP_L__
 6076 208a 9EB7      		in r25,__SP_H__
 6077 208c 0696      		adiw r24,6
 6078 208e 0FB6      		in __tmp_reg__,__SREG__
 6079 2090 F894      		cli
 6080 2092 9EBF      		out __SP_H__,r25
 6081 2094 0FBE      		out __SREG__,__tmp_reg__
 6082 2096 8DBF      		out __SP_L__,r24
 6083 2098 CE01      		movw r24,r28
 6084 209a 0E94 0000 		call WH1602_SetTextDownLine
 6085               	.L378:
 6086 209e 11E0      		ldi r17,lo8(1)
 6087 20a0 00E0      		ldi r16,lo8(0)
 6088               	.L383:
 6089               	.LBB630:
 6090               	.LBB631:
 6091               	.LM666:
 6092 20a2 C701      		movw r24,r14
 6093 20a4 B601      		movw r22,r12
 6094 20a6 412F      		mov r20,r17
 6095 20a8 0E94 0000 		call DRAM_WriteByte
 6096               	.LM667:
 6097 20ac 0E94 0000 		call DRAM_Refresh
 6098               	.LM668:
 6099 20b0 C701      		movw r24,r14
 6100 20b2 B601      		movw r22,r12
 6101 20b4 0E94 0000 		call DRAM_ReadByte
 6102 20b8 682E      		mov r6,r24
 6103               	.LM669:
 6104 20ba 1817      		cp r17,r24
 6105 20bc 01F0      		breq .L379
 6106               	.LM670:
 6107 20be 80E0      		ldi r24,lo8(Text_Main_Memory_Test_Error)
 6108 20c0 90E0      		ldi r25,hi8(Text_Main_Memory_Test_Error)
 6109 20c2 0E94 0000 		call WH1602_SetTextProgmemUpLine
 6110               	.LM671:
 6111 20c6 ADB7      		in r26,__SP_L__
 6112 20c8 BEB7      		in r27,__SP_H__
 6113 20ca 1A97      		sbiw r26,10
 6114 20cc 0FB6      		in __tmp_reg__,__SREG__
 6115 20ce F894      		cli
 6116 20d0 BEBF      		out __SP_H__,r27
 6117 20d2 0FBE      		out __SREG__,__tmp_reg__
 6118 20d4 ADBF      		out __SP_L__,r26
 6119 20d6 EDB7      		in r30,__SP_L__
 6120 20d8 FEB7      		in r31,__SP_H__
 6121 20da 3196      		adiw r30,1
 6122 20dc C0E0      		ldi r28,lo8(string)
 6123 20de D0E0      		ldi r29,hi8(string)
 6124 20e0 1296      		adiw r26,1+1
 6125 20e2 DC93      		st X,r29
 6126 20e4 CE93      		st -X,r28
 6127 20e6 1197      		sbiw r26,1
 6128 20e8 80E0      		ldi r24,lo8(.LC3)
 6129 20ea 90E0      		ldi r25,hi8(.LC3)
 6130 20ec 9383      		std Z+3,r25
 6131 20ee 8283      		std Z+2,r24
 6132 20f0 D582      		std Z+5,r13
 6133 20f2 C482      		std Z+4,r12
 6134 20f4 1683      		std Z+6,r17
 6135 20f6 1782      		std Z+7,__zero_reg__
 6136 20f8 6086      		std Z+8,r6
 6137 20fa 1186      		std Z+9,__zero_reg__
 6138 20fc 0E94 0000 		call sprintf
 6139               	.LM672:
 6140 2100 8DB7      		in r24,__SP_L__
 6141 2102 9EB7      		in r25,__SP_H__
 6142 2104 0A96      		adiw r24,10
 6143 2106 0FB6      		in __tmp_reg__,__SREG__
 6144 2108 F894      		cli
 6145 210a 9EBF      		out __SP_H__,r25
 6146 210c 0FBE      		out __SREG__,__tmp_reg__
 6147 210e 8DBF      		out __SP_L__,r24
 6148 2110 CE01      		movw r24,r28
 6149 2112 0E94 0000 		call WH1602_SetTextDownLine
 6150 2116 80E5      		ldi r24,lo8(-15536)
 6151 2118 93EC      		ldi r25,hi8(-15536)
 6152               	.LBB632:
 6153               	.LBB633:
 6154               	.LBB634:
 6155               	.LBB635:
 6156               	.LM673:
 6157 211a 20E9      		ldi r18,lo8(400)
 6158 211c 31E0      		ldi r19,hi8(400)
 6159               	.L380:
 6160 211e F901      		movw r30,r18
 6161               	/* #APP */
 6162               	 ;  105 "c:/winavr-20100110/lib/gcc/../../avr/include/util/delay_basic.h" 1
 6163 2120 3197      		1: sbiw r30,1
 6164 2122 01F4      		brne 1b
 6165               	 ;  0 "" 2
 6166               	/* #NOAPP */
 6167               	.LBE635:
 6168               	.LBE634:
 6169               	.LM674:
 6170 2124 0197      		sbiw r24,1
 6171               	.LM675:
 6172 2126 01F4      		brne .L380
 6173 2128 00C0      		rjmp .L386
 6174               	.L379:
 6175               	.LBE633:
 6176               	.LBE632:
 6177               	.LBE631:
 6178               	.LM676:
 6179 212a 0F5F      		subi r16,lo8(-(1))
 6180 212c 0830      		cpi r16,lo8(8)
 6181 212e 01F0      		breq .L382
 6182 2130 110F      		lsl r17
 6183 2132 00C0      		rjmp .L383
 6184               	.L382:
 6185               	.LBE630:
 6186               	.LBE629:
 6187               	.LM677:
 6188 2134 0894      		sec
 6189 2136 C11C      		adc r12,__zero_reg__
 6190 2138 D11C      		adc r13,__zero_reg__
 6191 213a E11C      		adc r14,__zero_reg__
 6192 213c F11C      		adc r15,__zero_reg__
 6193 213e 84E6      		ldi r24,lo8(100)
 6194 2140 90E0      		ldi r25,hi8(100)
 6195 2142 A0E0      		ldi r26,hlo8(100)
 6196 2144 B0E0      		ldi r27,hhi8(100)
 6197 2146 880E      		add r8,r24
 6198 2148 991E      		adc r9,r25
 6199 214a AA1E      		adc r10,r26
 6200 214c BB1E      		adc r11,r27
 6201 214e 172D      		mov r17,r7
 6202 2150 90E0      		ldi r25,lo8(131072)
 6203 2152 C916      		cp r12,r25
 6204 2154 90E0      		ldi r25,hi8(131072)
 6205 2156 D906      		cpc r13,r25
 6206 2158 92E0      		ldi r25,hlo8(131072)
 6207 215a E906      		cpc r14,r25
 6208 215c 90E0      		ldi r25,hhi8(131072)
 6209 215e F906      		cpc r15,r25
 6210 2160 01F0      		breq .+2
 6211 2162 00C0      		rjmp .L384
 6212               	.LBE628:
 6213               	.LM678:
 6214 2164 80E0      		ldi r24,lo8(Text_Main_Memory_Test_OK)
 6215 2166 90E0      		ldi r25,hi8(Text_Main_Memory_Test_OK)
 6216 2168 0E94 0000 		call WH1602_SetTextProgmemUpLine
 6217               	.LM679:
 6218 216c 80E0      		ldi r24,lo8(.LC4)
 6219 216e 90E0      		ldi r25,hi8(.LC4)
 6220 2170 0E94 0000 		call WH1602_SetTextDownLine
 6221 2174 80E3      		ldi r24,lo8(30000)
 6222 2176 95E7      		ldi r25,hi8(30000)
 6223               	.LBB636:
 6224               	.LBB637:
 6225               	.LBB638:
 6226               	.LBB639:
 6227               	.LM680:
 6228 2178 20E9      		ldi r18,lo8(400)
 6229 217a 31E0      		ldi r19,hi8(400)
 6230               	.L385:
 6231 217c F901      		movw r30,r18
 6232               	/* #APP */
 6233               	 ;  105 "c:/winavr-20100110/lib/gcc/../../avr/include/util/delay_basic.h" 1
 6234 217e 3197      		1: sbiw r30,1
 6235 2180 01F4      		brne 1b
 6236               	 ;  0 "" 2
 6237               	/* #NOAPP */
 6238               	.LBE639:
 6239               	.LBE638:
 6240               	.LM681:
 6241 2182 0197      		sbiw r24,1
 6242               	.LM682:
 6243 2184 01F4      		brne .L385
 6244               	.L386:
 6245               	/* epilogue start */
 6246               	.LBE637:
 6247               	.LBE636:
 6248               	.LM683:
 6249 2186 DF91      		pop r29
 6250 2188 CF91      		pop r28
 6251 218a 1F91      		pop r17
 6252 218c 0F91      		pop r16
 6253 218e FF90      		pop r15
 6254 2190 EF90      		pop r14
 6255 2192 DF90      		pop r13
 6256 2194 CF90      		pop r12
 6257 2196 BF90      		pop r11
 6258 2198 AF90      		pop r10
 6259 219a 9F90      		pop r9
 6260 219c 8F90      		pop r8
 6261 219e 7F90      		pop r7
 6262 21a0 6F90      		pop r6
 6263 21a2 5F90      		pop r5
 6264 21a4 4F90      		pop r4
 6265 21a6 0895      		ret
 6266               	.LFE45:
 6268               		.data
 6269               	.LC5:
 6270 0040 5B25 3032 		.string	"[%02u:%05u] File"
 6270      753A 2530 
 6270      3575 5D20 
 6270      4669 6C65 
 6270      00
 6271               	.LC6:
 6272 0051 5B25 3032 		.string	"[%02u:%05u] Papka"
 6272      753A 2530 
 6272      3575 5D20 
 6272      5061 706B 
 6272      6100 
 6273               		.text
 6274               	.global	TapeMenu
 6276               	TapeMenu:
 6277               	.LFB44:
 6278               	.LM684:
 6279 21a8 2F92      		push r2
 6280 21aa 3F92      		push r3
 6281 21ac 4F92      		push r4
 6282 21ae 5F92      		push r5
 6283 21b0 6F92      		push r6
 6284 21b2 7F92      		push r7
 6285 21b4 8F92      		push r8
 6286 21b6 9F92      		push r9
 6287 21b8 AF92      		push r10
 6288 21ba BF92      		push r11
 6289 21bc CF92      		push r12
 6290 21be DF92      		push r13
 6291 21c0 EF92      		push r14
 6292 21c2 FF92      		push r15
 6293 21c4 0F93      		push r16
 6294 21c6 1F93      		push r17
 6295 21c8 DF93      		push r29
 6296 21ca CF93      		push r28
 6297 21cc CDB7      		in r28,__SP_L__
 6298 21ce DEB7      		in r29,__SP_H__
 6299 21d0 E197      		sbiw r28,49
 6300 21d2 0FB6      		in __tmp_reg__,__SREG__
 6301 21d4 F894      		cli
 6302 21d6 DEBF      		out __SP_H__,r29
 6303 21d8 0FBE      		out __SREG__,__tmp_reg__
 6304 21da CDBF      		out __SP_L__,r28
 6305               	/* prologue: function */
 6306               	/* frame size = 49 */
 6307               	.LM685:
 6308 21dc 0E94 0000 		call FAT_BeginFileSearch
 6309 21e0 8823      		tst r24
 6310 21e2 01F4      		brne .L391
 6311               	.LM686:
 6312 21e4 80E0      		ldi r24,lo8(Text_Tape_Menu_No_Image)
 6313 21e6 90E0      		ldi r25,hi8(Text_Tape_Menu_No_Image)
 6314 21e8 0E94 0000 		call WH1602_SetTextProgmemUpLine
 6315               	.LM687:
 6316 21ec 80E0      		ldi r24,lo8(.LC4)
 6317 21ee 90E0      		ldi r25,hi8(.LC4)
 6318 21f0 0E94 0000 		call WH1602_SetTextDownLine
 6319 21f4 80E2      		ldi r24,lo8(20000)
 6320 21f6 9EE4      		ldi r25,hi8(20000)
 6321               	.LVL379:
 6322               	.LBB640:
 6323               	.LBB641:
 6324               	.LBB642:
 6325               	.LBB643:
 6326               	.LM688:
 6327 21f8 20E9      		ldi r18,lo8(400)
 6328 21fa 31E0      		ldi r19,hi8(400)
 6329               	.L392:
 6330 21fc F901      		movw r30,r18
 6331               	.LVL380:
 6332               	/* #APP */
 6333               	 ;  105 "c:/winavr-20100110/lib/gcc/../../avr/include/util/delay_basic.h" 1
 6334 21fe 3197      		1: sbiw r30,1
 6335 2200 01F4      		brne 1b
 6336               	 ;  0 "" 2
 6337               	/* #NOAPP */
 6338               	.LBE643:
 6339               	.LBE642:
 6340               	.LM689:
 6341 2202 0197      		sbiw r24,1
 6342               	.LM690:
 6343 2204 01F4      		brne .L392
 6344 2206 00C0      		rjmp .L427
 6345               	.LVL381:
 6346               	.L391:
 6347               	.LBE641:
 6348               	.LBE640:
 6349               	.LM691:
 6350 2208 81E0      		ldi r24,lo8(1)
 6351 220a 90E0      		ldi r25,hi8(1)
 6352 220c 9B87      		std Y+11,r25
 6353 220e 8A87      		std Y+10,r24
 6354 2210 DD24      		clr r13
 6355               	.LVL382:
 6356 2212 61E0      		ldi r22,lo8(1)
 6357 2214 E62E      		mov r14,r22
 6358 2216 F12C      		mov r15,__zero_reg__
 6359               	.LVL383:
 6360               	.LM692:
 6361 2218 50E0      		ldi r21,lo8(string)
 6362 221a 852E      		mov r8,r21
 6363 221c 50E0      		ldi r21,hi8(string)
 6364 221e 952E      		mov r9,r21
 6365 2220 5E01      		movw r10,r28
 6366 2222 0894      		sec
 6367 2224 A11C      		adc r10,__zero_reg__
 6368 2226 B11C      		adc r11,__zero_reg__
 6369               	.LM693:
 6370 2228 40E0      		ldi r20,lo8(.LC5)
 6371 222a 242E      		mov r2,r20
 6372 222c 40E0      		ldi r20,hi8(.LC5)
 6373 222e 342E      		mov r3,r20
 6374               	.LBB644:
 6375               	.LBB645:
 6376               	.LBB646:
 6377               	.LBB647:
 6378               	.LM694:
 6379 2230 30E9      		ldi r19,lo8(400)
 6380 2232 432E      		mov r4,r19
 6381 2234 31E0      		ldi r19,hi8(400)
 6382 2236 532E      		mov r5,r19
 6383               	.LBE647:
 6384               	.LBE646:
 6385               	.LBE645:
 6386               	.LBE644:
 6387               	.LBB651:
 6388               	.LM695:
 6389 2238 21E0      		ldi r18,lo8(1)
 6390 223a 622E      		mov r6,r18
 6391 223c 712C      		mov r7,__zero_reg__
 6392               	.LVL384:
 6393 223e 00C0      		rjmp .L425
 6394               	.LVL385:
 6395               	.L401:
 6396               	.LBE651:
 6397               	.LM696:
 6398 2240 7801      		movw r14,r16
 6399               	.LVL386:
 6400               	.L425:
 6401               	.LM697:
 6402 2242 80E0      		ldi r24,lo8(string)
 6403 2244 90E0      		ldi r25,hi8(string)
 6404 2246 BE01      		movw r22,r28
 6405 2248 6E5F      		subi r22,lo8(-(2))
 6406 224a 7F4F      		sbci r23,hi8(-(2))
 6407 224c AE01      		movw r20,r28
 6408 224e 4A5F      		subi r20,lo8(-(6))
 6409 2250 5F4F      		sbci r21,hi8(-(6))
 6410 2252 9501      		movw r18,r10
 6411 2254 0E94 0000 		call FAT_GetFileSearch
 6412               	.LVL387:
 6413 2258 8130      		cpi r24,lo8(1)
 6414 225a 01F4      		brne .L394
 6415 225c 80E0      		ldi r24,lo8(string)
 6416 225e 90E0      		ldi r25,hi8(string)
 6417 2260 0E94 0000 		call WH1602_SetTextDownLine
 6418               	.L394:
 6419               	.LM698:
 6420 2264 8981      		ldd r24,Y+1
 6421 2266 8823      		tst r24
 6422 2268 01F4      		brne .L395
 6423               	.LVL388:
 6424 226a 8DB7      		in r24,__SP_L__
 6425 226c 9EB7      		in r25,__SP_H__
 6426               	.LVL389:
 6427 226e 0897      		sbiw r24,8
 6428 2270 0FB6      		in __tmp_reg__,__SREG__
 6429 2272 F894      		cli
 6430 2274 9EBF      		out __SP_H__,r25
 6431 2276 0FBE      		out __SREG__,__tmp_reg__
 6432 2278 8DBF      		out __SP_L__,r24
 6433 227a EDB7      		in r30,__SP_L__
 6434 227c FEB7      		in r31,__SP_H__
 6435 227e 3196      		adiw r30,1
 6436 2280 ADB7      		in r26,__SP_L__
 6437 2282 BEB7      		in r27,__SP_H__
 6438 2284 1296      		adiw r26,1+1
 6439 2286 9C92      		st X,r9
 6440 2288 8E92      		st -X,r8
 6441 228a 1197      		sbiw r26,1
 6442 228c 3382      		std Z+3,r3
 6443 228e 2282      		std Z+2,r2
 6444 2290 D482      		std Z+4,r13
 6445 2292 1582      		std Z+5,__zero_reg__
 6446 2294 F782      		std Z+7,r15
 6447 2296 E682      		std Z+6,r14
 6448 2298 0E94 0000 		call sprintf
 6449 229c 8DB7      		in r24,__SP_L__
 6450 229e 9EB7      		in r25,__SP_H__
 6451 22a0 0896      		adiw r24,8
 6452 22a2 0FB6      		in __tmp_reg__,__SREG__
 6453 22a4 F894      		cli
 6454 22a6 9EBF      		out __SP_H__,r25
 6455 22a8 0FBE      		out __SREG__,__tmp_reg__
 6456 22aa 8DBF      		out __SP_L__,r24
 6457 22ac 00C0      		rjmp .L396
 6458               	.LVL390:
 6459               	.L395:
 6460               	.LM699:
 6461 22ae ADB7      		in r26,__SP_L__
 6462 22b0 BEB7      		in r27,__SP_H__
 6463 22b2 1897      		sbiw r26,8
 6464 22b4 0FB6      		in __tmp_reg__,__SREG__
 6465 22b6 F894      		cli
 6466 22b8 BEBF      		out __SP_H__,r27
 6467 22ba 0FBE      		out __SREG__,__tmp_reg__
 6468 22bc ADBF      		out __SP_L__,r26
 6469 22be EDB7      		in r30,__SP_L__
 6470 22c0 FEB7      		in r31,__SP_H__
 6471 22c2 3196      		adiw r30,1
 6472 22c4 1296      		adiw r26,1+1
 6473 22c6 9C92      		st X,r9
 6474 22c8 8E92      		st -X,r8
 6475 22ca 1197      		sbiw r26,1
 6476 22cc 80E0      		ldi r24,lo8(.LC6)
 6477 22ce 90E0      		ldi r25,hi8(.LC6)
 6478               	.LVL391:
 6479 22d0 9383      		std Z+3,r25
 6480 22d2 8283      		std Z+2,r24
 6481 22d4 D482      		std Z+4,r13
 6482 22d6 1582      		std Z+5,__zero_reg__
 6483 22d8 F782      		std Z+7,r15
 6484 22da E682      		std Z+6,r14
 6485 22dc 0E94 0000 		call sprintf
 6486 22e0 ADB7      		in r26,__SP_L__
 6487 22e2 BEB7      		in r27,__SP_H__
 6488 22e4 1896      		adiw r26,8
 6489 22e6 0FB6      		in __tmp_reg__,__SREG__
 6490 22e8 F894      		cli
 6491 22ea BEBF      		out __SP_H__,r27
 6492 22ec 0FBE      		out __SREG__,__tmp_reg__
 6493 22ee ADBF      		out __SP_L__,r26
 6494               	.L396:
 6495               	.LM700:
 6496 22f0 80E0      		ldi r24,lo8(string)
 6497 22f2 90E0      		ldi r25,hi8(string)
 6498 22f4 0E94 0000 		call WH1602_SetTextUpLine
 6499 22f8 88EB      		ldi r24,lo8(3000)
 6500 22fa 9BE0      		ldi r25,hi8(3000)
 6501               	.LVL392:
 6502               	.L397:
 6503               	.LBB652:
 6504               	.LBB650:
 6505               	.LBB649:
 6506               	.LBB648:
 6507               	.LM701:
 6508 22fc F201      		movw r30,r4
 6509               	/* #APP */
 6510               	 ;  105 "c:/winavr-20100110/lib/gcc/../../avr/include/util/delay_basic.h" 1
 6511 22fe 3197      		1: sbiw r30,1
 6512 2300 01F4      		brne 1b
 6513               	 ;  0 "" 2
 6514               	/* #NOAPP */
 6515               	.LBE648:
 6516               	.LBE649:
 6517               	.LM702:
 6518 2302 0197      		sbiw r24,1
 6519               	.LM703:
 6520 2304 01F4      		brne .L397
 6521               	.L418:
 6522               	.LBE650:
 6523               	.LBE652:
 6524               	.LM704:
 6525 2306 839B      		sbis 48-32,3
 6526 2308 00C0      		rjmp .L398
 6527               	.LBB653:
 6528               	.LM705:
 6529 230a 829B      		sbis 48-32,2
 6530 230c 00C0      		rjmp .L399
 6531 230e 9AE0      		ldi r25,lo8(10)
 6532 2310 C92E      		mov r12,r25
 6533               	.LVL393:
 6534 2312 00C0      		rjmp .L400
 6535               	.LVL394:
 6536               	.L399:
 6537 2314 CC24      		clr r12
 6538 2316 C394      		inc r12
 6539               	.LVL395:
 6540               	.L400:
 6541 2318 8701      		movw r16,r14
 6542               	.LVL396:
 6543               	.L402:
 6544               	.LM706:
 6545 231a 0E94 0000 		call FAT_PrevFileSearch
 6546               	.LVL397:
 6547 231e 8130      		cpi r24,lo8(1)
 6548 2320 01F0      		breq .+2
 6549 2322 00C0      		rjmp .L401
 6550 2324 0150      		subi r16,lo8(-(-1))
 6551 2326 1040      		sbci r17,hi8(-(-1))
 6552               	.LM707:
 6553 2328 8E2D      		mov r24,r14
 6554 232a 801B      		sub r24,r16
 6555 232c 8C15      		cp r24,r12
 6556 232e 00F0      		brlo .L402
 6557 2330 00C0      		rjmp .L401
 6558               	.LVL398:
 6559               	.L398:
 6560               	.LBE653:
 6561               	.LM708:
 6562 2332 819B      		sbis 48-32,1
 6563 2334 00C0      		rjmp .L403
 6564               	.LBB654:
 6565               	.LM709:
 6566 2336 829B      		sbis 48-32,2
 6567 2338 00C0      		rjmp .L404
 6568 233a 8AE0      		ldi r24,lo8(10)
 6569 233c C82E      		mov r12,r24
 6570               	.LVL399:
 6571 233e 00C0      		rjmp .L405
 6572               	.LVL400:
 6573               	.L404:
 6574 2340 CC24      		clr r12
 6575 2342 C394      		inc r12
 6576               	.LVL401:
 6577               	.L405:
 6578 2344 8701      		movw r16,r14
 6579               	.L407:
 6580               	.LM710:
 6581 2346 0E94 0000 		call FAT_NextFileSearch
 6582               	.LVL402:
 6583 234a 8130      		cpi r24,lo8(1)
 6584 234c 01F0      		breq .+2
 6585 234e 00C0      		rjmp .L401
 6586 2350 0F5F      		subi r16,lo8(-(1))
 6587 2352 1F4F      		sbci r17,hi8(-(1))
 6588               	.LVL403:
 6589               	.LM711:
 6590 2354 802F      		mov r24,r16
 6591               	.LVL404:
 6592 2356 8E19      		sub r24,r14
 6593               	.LVL405:
 6594 2358 8C15      		cp r24,r12
 6595 235a 00F0      		brlo .L407
 6596 235c 00C0      		rjmp .L401
 6597               	.LVL406:
 6598               	.L403:
 6599               	.LBE654:
 6600               	.LM712:
 6601 235e 849B      		sbis 48-32,4
 6602 2360 00C0      		rjmp .L418
 6603               	.LM713:
 6604 2362 8981      		ldd r24,Y+1
 6605               	.LVL407:
 6606 2364 8823      		tst r24
 6607 2366 01F4      		brne .L409
 6608 2368 0E94 0000 		call OutputImage
 6609               	.LVL408:
 6610 236c 00C0      		rjmp .L425
 6611               	.LVL409:
 6612               	.L409:
 6613               	.LM714:
 6614 236e B3E1      		ldi r27,lo8(19)
 6615 2370 BD15      		cp r27,r13
 6616 2372 00F0      		brlo .L410
 6617 2374 ED2D      		mov r30,r13
 6618               	.LVL410:
 6619 2376 F0E0      		ldi r31,lo8(0)
 6620               	.LVL411:
 6621 2378 EE0F      		lsl r30
 6622 237a FF1F      		rol r31
 6623               	.LVL412:
 6624 237c EA0D      		add r30,r10
 6625 237e FB1D      		adc r31,r11
 6626               	.LVL413:
 6627 2380 F286      		std Z+10,r15
 6628 2382 E186      		std Z+9,r14
 6629               	.LVL414:
 6630               	.L410:
 6631               	.LM715:
 6632 2384 87FF      		sbrs r24,7
 6633 2386 00C0      		rjmp .L411
 6634               	.LM716:
 6635 2388 DD20      		tst r13
 6636 238a 01F0      		breq .L412
 6637 238c DA94      		dec r13
 6638 238e 00C0      		rjmp .L412
 6639               	.LVL415:
 6640               	.L411:
 6641               	.LM717:
 6642 2390 D394      		inc r13
 6643               	.LM718:
 6644 2392 83E1      		ldi r24,lo8(19)
 6645 2394 8D15      		cp r24,r13
 6646 2396 00F0      		brlo .L412
 6647 2398 ED2D      		mov r30,r13
 6648               	.LVL416:
 6649 239a F0E0      		ldi r31,lo8(0)
 6650               	.LVL417:
 6651 239c EE0F      		lsl r30
 6652 239e FF1F      		rol r31
 6653               	.LVL418:
 6654 23a0 EA0D      		add r30,r10
 6655 23a2 FB1D      		adc r31,r11
 6656               	.LVL419:
 6657 23a4 7286      		std Z+10,r7
 6658 23a6 6186      		std Z+9,r6
 6659               	.LVL420:
 6660               	.L412:
 6661               	.LM719:
 6662 23a8 6A81      		ldd r22,Y+2
 6663 23aa 7B81      		ldd r23,Y+3
 6664 23ac 8C81      		ldd r24,Y+4
 6665 23ae 9D81      		ldd r25,Y+5
 6666 23b0 0E94 0000 		call FAT_EnterDirectory
 6667               	.LVL421:
 6668               	.LM720:
 6669 23b4 93E1      		ldi r25,lo8(19)
 6670 23b6 9D15      		cp r25,r13
 6671 23b8 00F4      		brsh .L413
 6672 23ba B1E0      		ldi r27,lo8(1)
 6673 23bc EB2E      		mov r14,r27
 6674 23be F12C      		mov r15,__zero_reg__
 6675 23c0 00C0      		rjmp .L425
 6676               	.LVL422:
 6677               	.L413:
 6678               	.LBB655:
 6679               	.LM721:
 6680 23c2 ED2D      		mov r30,r13
 6681 23c4 F0E0      		ldi r31,lo8(0)
 6682               	.LVL423:
 6683 23c6 EE0F      		lsl r30
 6684 23c8 FF1F      		rol r31
 6685               	.LVL424:
 6686 23ca EA0D      		add r30,r10
 6687 23cc FB1D      		adc r31,r11
 6688               	.LVL425:
 6689 23ce 0185      		ldd r16,Z+9
 6690 23d0 1285      		ldd r17,Z+10
 6691 23d2 71E0      		ldi r23,lo8(1)
 6692 23d4 E72E      		mov r14,r23
 6693 23d6 F12C      		mov r15,__zero_reg__
 6694 23d8 00C0      		rjmp .L414
 6695               	.L415:
 6696               	.LM722:
 6697 23da 0E94 0000 		call FAT_NextFileSearch
 6698               	.LVL426:
 6699 23de 8130      		cpi r24,lo8(1)
 6700 23e0 01F0      		breq .+2
 6701 23e2 00C0      		rjmp .L425
 6702 23e4 0894      		sec
 6703 23e6 E11C      		adc r14,__zero_reg__
 6704 23e8 F11C      		adc r15,__zero_reg__
 6705               	.LVL427:
 6706               	.L414:
 6707               	.LM723:
 6708 23ea E016      		cp r14,r16
 6709 23ec F106      		cpc r15,r17
 6710 23ee 00F0      		brlo .L415
 6711 23f0 00C0      		rjmp .L425
 6712               	.LVL428:
 6713               	.L427:
 6714               	/* epilogue start */
 6715               	.LBE655:
 6716               	.LM724:
 6717 23f2 E196      		adiw r28,49
 6718 23f4 0FB6      		in __tmp_reg__,__SREG__
 6719 23f6 F894      		cli
 6720 23f8 DEBF      		out __SP_H__,r29
 6721 23fa 0FBE      		out __SREG__,__tmp_reg__
 6722 23fc CDBF      		out __SP_L__,r28
 6723 23fe CF91      		pop r28
 6724 2400 DF91      		pop r29
 6725 2402 1F91      		pop r17
 6726 2404 0F91      		pop r16
 6727 2406 FF90      		pop r15
 6728 2408 EF90      		pop r14
 6729 240a DF90      		pop r13
 6730 240c CF90      		pop r12
 6731 240e BF90      		pop r11
 6732 2410 AF90      		pop r10
 6733 2412 9F90      		pop r9
 6734 2414 8F90      		pop r8
 6735 2416 7F90      		pop r7
 6736 2418 6F90      		pop r6
 6737 241a 5F90      		pop r5
 6738 241c 4F90      		pop r4
 6739 241e 3F90      		pop r3
 6740 2420 2F90      		pop r2
 6741 2422 0895      		ret
 6742               	.LFE44:
 6744               		.data
 6745               	.LC7:
 6746 0063 2569 20CC 		.string	"%i \314\301"
 6746      C100 
 6747               		.text
 6748               	.global	SD_Init
 6750               	SD_Init:
 6751               	.LFB23:
 6752               	.LM725:
 6753 2424 FF92      		push r15
 6754 2426 0F93      		push r16
 6755 2428 1F93      		push r17
 6756 242a CF93      		push r28
 6757 242c DF93      		push r29
 6758               	/* prologue: function */
 6759               	/* frame size = 0 */
 6760               	.LM726:
 6761 242e 80E0      		ldi r24,lo8(.LC4)
 6762 2430 90E0      		ldi r25,hi8(.LC4)
 6763 2432 0E94 0000 		call WH1602_SetTextUpLine
 6764               	.LM727:
 6765 2436 80E0      		ldi r24,lo8(.LC4)
 6766 2438 90E0      		ldi r25,hi8(.LC4)
 6767 243a 0E94 0000 		call WH1602_SetTextDownLine
 6768               	.LM728:
 6769 243e BC9A      		sbi 55-32,4
 6770               	.LM729:
 6771 2440 BD9A      		sbi 55-32,5
 6772               	.LM730:
 6773 2442 BF9A      		sbi 55-32,7
 6774               	.LM731:
 6775 2444 BE98      		cbi 55-32,6
 6776 2446 88EE      		ldi r24,lo8(1000)
 6777 2448 93E0      		ldi r25,hi8(1000)
 6778               	.LBB656:
 6779               	.LBB657:
 6780               	.LBB658:
 6781               	.LBB659:
 6782               	.LM732:
 6783 244a 20E9      		ldi r18,lo8(400)
 6784 244c 31E0      		ldi r19,hi8(400)
 6785               	.L429:
 6786 244e F901      		movw r30,r18
 6787               	/* #APP */
 6788               	 ;  105 "c:/winavr-20100110/lib/gcc/../../avr/include/util/delay_basic.h" 1
 6789 2450 3197      		1: sbiw r30,1
 6790 2452 01F4      		brne 1b
 6791               	 ;  0 "" 2
 6792               	/* #NOAPP */
 6793               	.LBE659:
 6794               	.LBE658:
 6795               	.LM733:
 6796 2454 0197      		sbiw r24,1
 6797               	.LM734:
 6798 2456 01F4      		brne .L429
 6799               	.LBE657:
 6800               	.LBE656:
 6801               	.LM735:
 6802 2458 C49A      		sbi 56-32,4
 6803 245a 88E8      		ldi r24,lo8(5000)
 6804 245c 93E1      		ldi r25,hi8(5000)
 6805               	.LBB660:
 6806               	.LBB661:
 6807               	.LBB662:
 6808               	.LBB663:
 6809               	.LM736:
 6810 245e 20E9      		ldi r18,lo8(400)
 6811 2460 31E0      		ldi r19,hi8(400)
 6812               	.L430:
 6813 2462 F901      		movw r30,r18
 6814               	/* #APP */
 6815               	 ;  105 "c:/winavr-20100110/lib/gcc/../../avr/include/util/delay_basic.h" 1
 6816 2464 3197      		1: sbiw r30,1
 6817 2466 01F4      		brne 1b
 6818               	 ;  0 "" 2
 6819               	/* #NOAPP */
 6820               	.LBE663:
 6821               	.LBE662:
 6822               	.LM737:
 6823 2468 0197      		sbiw r24,1
 6824               	.LM738:
 6825 246a 01F4      		brne .L430
 6826               	.LBE661:
 6827               	.LBE660:
 6828               	.LM739:
 6829 246c C59A      		sbi 56-32,5
 6830 246e 20E0      		ldi r18,lo8(0)
 6831               	.LBB664:
 6832               	.LBB665:
 6833               	.LBB666:
 6834               	.LBB667:
 6835               	.LM740:
 6836 2470 40EA      		ldi r20,lo8(4000)
 6837 2472 5FE0      		ldi r21,hi8(4000)
 6838               	.L431:
 6839               	.LBE667:
 6840               	.LBE666:
 6841               	.LBE665:
 6842               	.LBE664:
 6843               	.LM741:
 6844 2474 C79A      		sbi 56-32,7
 6845               	.LBB671:
 6846               	.LBB670:
 6847               	.LBB669:
 6848               	.LBB668:
 6849               	.LM742:
 6850 2476 CA01      		movw r24,r20
 6851               	/* #APP */
 6852               	 ;  105 "c:/winavr-20100110/lib/gcc/../../avr/include/util/delay_basic.h" 1
 6853 2478 0197      		1: sbiw r24,1
 6854 247a 01F4      		brne 1b
 6855               	 ;  0 "" 2
 6856               	/* #NOAPP */
 6857               	.LBE668:
 6858               	.LBE669:
 6859               	.LBE670:
 6860               	.LBE671:
 6861               	.LM743:
 6862 247c C798      		cbi 56-32,7
 6863               	.LBB672:
 6864               	.LBB673:
 6865               	.LBB674:
 6866               	.LBB675:
 6867               	.LM744:
 6868 247e CA01      		movw r24,r20
 6869               	/* #APP */
 6870               	 ;  105 "c:/winavr-20100110/lib/gcc/../../avr/include/util/delay_basic.h" 1
 6871 2480 0197      		1: sbiw r24,1
 6872 2482 01F4      		brne 1b
 6873               	 ;  0 "" 2
 6874               	/* #NOAPP */
 6875               	.LBE675:
 6876               	.LBE674:
 6877               	.LBE673:
 6878               	.LBE672:
 6879               	.LM745:
 6880 2484 2F5F      		subi r18,lo8(-(1))
 6881 2486 2A3F      		cpi r18,lo8(-6)
 6882 2488 01F4      		brne .L431
 6883               	.LM746:
 6884 248a C498      		cbi 56-32,4
 6885               	.LM747:
 6886 248c 80E5      		ldi r24,lo8(80)
 6887 248e 8DB9      		out 45-32,r24
 6888               	.LM748:
 6889 2490 81E0      		ldi r24,lo8(1)
 6890 2492 8EB9      		out 46-32,r24
 6891 2494 88EE      		ldi r24,lo8(1000)
 6892 2496 93E0      		ldi r25,hi8(1000)
 6893               	.LBB676:
 6894               	.LBB677:
 6895               	.LBB678:
 6896               	.LBB679:
 6897               	.LM749:
 6898 2498 20E9      		ldi r18,lo8(400)
 6899 249a 31E0      		ldi r19,hi8(400)
 6900               	.L432:
 6901 249c F901      		movw r30,r18
 6902               	/* #APP */
 6903               	 ;  105 "c:/winavr-20100110/lib/gcc/../../avr/include/util/delay_basic.h" 1
 6904 249e 3197      		1: sbiw r30,1
 6905 24a0 01F4      		brne 1b
 6906               	 ;  0 "" 2
 6907               	/* #NOAPP */
 6908               	.LBE679:
 6909               	.LBE678:
 6910               	.LM750:
 6911 24a2 0197      		sbiw r24,1
 6912               	.LM751:
 6913 24a4 01F4      		brne .L432
 6914               	.LBE677:
 6915               	.LBE676:
 6916               	.LM752:
 6917 24a6 80E4      		ldi r24,lo8(64)
 6918 24a8 60E0      		ldi r22,lo8(0)
 6919 24aa 40E0      		ldi r20,lo8(0)
 6920 24ac 20E0      		ldi r18,lo8(0)
 6921 24ae 00E0      		ldi r16,lo8(0)
 6922 24b0 0E94 0000 		call SD_SendCommandR1
 6923               	.LM753:
 6924 24b4 8130      		cpi r24,lo8(1)
 6925 24b6 01F0      		breq .L433
 6926               	.LM754:
 6927 24b8 80E0      		ldi r24,lo8(Text_SD_No_SPI_Up)
 6928 24ba 90E0      		ldi r25,hi8(Text_SD_No_SPI_Up)
 6929 24bc 0E94 0000 		call WH1602_SetTextProgmemUpLine
 6930               	.LM755:
 6931 24c0 80E0      		ldi r24,lo8(Text_SD_No_SPI_Down)
 6932 24c2 90E0      		ldi r25,hi8(Text_SD_No_SPI_Down)
 6933 24c4 0E94 0000 		call WH1602_SetTextProgmemDownLine
 6934 24c8 80E3      		ldi r24,lo8(30000)
 6935 24ca 95E7      		ldi r25,hi8(30000)
 6936               	.LBB680:
 6937               	.LBB681:
 6938               	.LBB682:
 6939               	.LBB683:
 6940               	.LM756:
 6941 24cc 20E9      		ldi r18,lo8(400)
 6942 24ce 31E0      		ldi r19,hi8(400)
 6943               	.L434:
 6944 24d0 F901      		movw r30,r18
 6945               	/* #APP */
 6946               	 ;  105 "c:/winavr-20100110/lib/gcc/../../avr/include/util/delay_basic.h" 1
 6947 24d2 3197      		1: sbiw r30,1
 6948 24d4 01F4      		brne 1b
 6949               	 ;  0 "" 2
 6950               	/* #NOAPP */
 6951               	.LBE683:
 6952               	.LBE682:
 6953               	.LM757:
 6954 24d6 0197      		sbiw r24,1
 6955               	.LM758:
 6956 24d8 01F4      		brne .L434
 6957 24da 00C0      		rjmp .L444
 6958               	.L433:
 6959               	.LBE681:
 6960               	.LBE680:
 6961               	.LBB684:
 6962               	.LBB685:
 6963               	.LM759:
 6964 24dc 8FEF      		ldi r24,lo8(-1)
 6965 24de 8FB9      		out 47-32,r24
 6966               	.L436:
 6967               	.LM760:
 6968 24e0 779B      		sbis 46-32,7
 6969 24e2 00C0      		rjmp .L436
 6970               	.LM761:
 6971 24e4 8FB1      		in r24,47-32
 6972 24e6 C0E0      		ldi r28,lo8(0)
 6973 24e8 D0E0      		ldi r29,hi8(0)
 6974               	.LBE685:
 6975               	.LBE684:
 6976               	.LBB686:
 6977               	.LBB687:
 6978               	.LM762:
 6979 24ea FF24      		clr r15
 6980 24ec FA94      		dec r15
 6981               	.LBE687:
 6982               	.LBE686:
 6983               	.LBB689:
 6984               	.LBB690:
 6985               	.LBB691:
 6986               	.LBB692:
 6987               	.LM763:
 6988 24ee 15E0      		ldi r17,lo8(5)
 6989               	.L439:
 6990               	.LBE692:
 6991               	.LBE691:
 6992               	.LBE690:
 6993               	.LBE689:
 6994               	.LM764:
 6995 24f0 81E4      		ldi r24,lo8(65)
 6996 24f2 60E0      		ldi r22,lo8(0)
 6997 24f4 40E0      		ldi r20,lo8(0)
 6998 24f6 20E0      		ldi r18,lo8(0)
 6999 24f8 00E0      		ldi r16,lo8(0)
 7000 24fa 0E94 0000 		call SD_SendCommandR1
 7001               	.LBB696:
 7002               	.LBB688:
 7003               	.LM765:
 7004 24fe FFB8      		out 47-32,r15
 7005               	.L437:
 7006               	.LM766:
 7007 2500 779B      		sbis 46-32,7
 7008 2502 00C0      		rjmp .L437
 7009               	.LM767:
 7010 2504 9FB1      		in r25,47-32
 7011               	.LBE688:
 7012               	.LBE696:
 7013               	.LM768:
 7014 2506 8823      		tst r24
 7015 2508 01F0      		breq .L438
 7016               	.LBB697:
 7017               	.LBB695:
 7018               	.LBB694:
 7019               	.LBB693:
 7020               	.LM769:
 7021 250a 812F      		mov r24,r17
 7022               	/* #APP */
 7023               	 ;  83 "c:/winavr-20100110/lib/gcc/../../avr/include/util/delay_basic.h" 1
 7024 250c 8A95      		1: dec r24
 7025 250e 01F4      		brne 1b
 7026               	 ;  0 "" 2
 7027               	/* #NOAPP */
 7028               	.LBE693:
 7029               	.LBE694:
 7030               	.LBE695:
 7031               	.LBE697:
 7032               	.LM770:
 7033 2510 2196      		adiw r28,1
 7034 2512 8FEF      		ldi r24,hi8(-1)
 7035 2514 CF3F      		cpi r28,lo8(-1)
 7036 2516 D807      		cpc r29,r24
 7037 2518 01F4      		brne .L439
 7038               	.LM771:
 7039 251a 80E0      		ldi r24,lo8(Text_SD_No_Response)
 7040 251c 90E0      		ldi r25,hi8(Text_SD_No_Response)
 7041 251e 0E94 0000 		call WH1602_SetTextProgmemUpLine
 7042 2522 80E3      		ldi r24,lo8(30000)
 7043 2524 95E7      		ldi r25,hi8(30000)
 7044               	.LBB698:
 7045               	.LBB699:
 7046               	.LBB700:
 7047               	.LBB701:
 7048               	.LM772:
 7049 2526 20E9      		ldi r18,lo8(400)
 7050 2528 31E0      		ldi r19,hi8(400)
 7051               	.L440:
 7052 252a F901      		movw r30,r18
 7053               	/* #APP */
 7054               	 ;  105 "c:/winavr-20100110/lib/gcc/../../avr/include/util/delay_basic.h" 1
 7055 252c 3197      		1: sbiw r30,1
 7056 252e 01F4      		brne 1b
 7057               	 ;  0 "" 2
 7058               	/* #NOAPP */
 7059               	.LBE701:
 7060               	.LBE700:
 7061               	.LM773:
 7062 2530 0197      		sbiw r24,1
 7063               	.LM774:
 7064 2532 01F4      		brne .L440
 7065 2534 00C0      		rjmp .L444
 7066               	.L438:
 7067               	.LBE699:
 7068               	.LBE698:
 7069               	.LM775:
 7070 2536 0E94 0000 		call SD_GetSize
 7071 253a 9B01      		movw r18,r22
 7072 253c AC01      		movw r20,r24
 7073               	.LM776:
 7074 253e 2F3F      		cpi r18,lo8(65535)
 7075 2540 9FEF      		ldi r25,hi8(65535)
 7076 2542 3907      		cpc r19,r25
 7077 2544 90E0      		ldi r25,hlo8(65535)
 7078 2546 4907      		cpc r20,r25
 7079 2548 90E0      		ldi r25,hhi8(65535)
 7080 254a 5907      		cpc r21,r25
 7081 254c 01F4      		brne .L441
 7082               	.LM777:
 7083 254e 80E0      		ldi r24,lo8(Text_SD_Size_Error_Up)
 7084 2550 90E0      		ldi r25,hi8(Text_SD_Size_Error_Up)
 7085 2552 0E94 0000 		call WH1602_SetTextProgmemUpLine
 7086               	.LM778:
 7087 2556 80E0      		ldi r24,lo8(Text_SD_Size_Error_Down)
 7088 2558 90E0      		ldi r25,hi8(Text_SD_Size_Error_Down)
 7089 255a 0E94 0000 		call WH1602_SetTextProgmemDownLine
 7090 255e 80E3      		ldi r24,lo8(30000)
 7091 2560 95E7      		ldi r25,hi8(30000)
 7092               	.LBB702:
 7093               	.LBB703:
 7094               	.LBB704:
 7095               	.LBB705:
 7096               	.LM779:
 7097 2562 20E9      		ldi r18,lo8(400)
 7098 2564 31E0      		ldi r19,hi8(400)
 7099               	.L442:
 7100 2566 F901      		movw r30,r18
 7101               	/* #APP */
 7102               	 ;  105 "c:/winavr-20100110/lib/gcc/../../avr/include/util/delay_basic.h" 1
 7103 2568 3197      		1: sbiw r30,1
 7104 256a 01F4      		brne 1b
 7105               	 ;  0 "" 2
 7106               	/* #NOAPP */
 7107               	.LBE705:
 7108               	.LBE704:
 7109               	.LM780:
 7110 256c 0197      		sbiw r24,1
 7111               	.LM781:
 7112 256e 01F4      		brne .L442
 7113 2570 00C0      		rjmp .L444
 7114               	.L441:
 7115               	.LBE703:
 7116               	.LBE702:
 7117               	.LM782:
 7118 2572 00D0      		rcall .
 7119 2574 00D0      		rcall .
 7120 2576 00D0      		rcall .
 7121 2578 EDB7      		in r30,__SP_L__
 7122 257a FEB7      		in r31,__SP_H__
 7123 257c 3196      		adiw r30,1
 7124 257e 00E0      		ldi r16,lo8(string)
 7125 2580 10E0      		ldi r17,hi8(string)
 7126 2582 ADB7      		in r26,__SP_L__
 7127 2584 BEB7      		in r27,__SP_H__
 7128 2586 1296      		adiw r26,1+1
 7129 2588 1C93      		st X,r17
 7130 258a 0E93      		st -X,r16
 7131 258c 1197      		sbiw r26,1
 7132 258e 80E0      		ldi r24,lo8(.LC7)
 7133 2590 90E0      		ldi r25,hi8(.LC7)
 7134 2592 9383      		std Z+3,r25
 7135 2594 8283      		std Z+2,r24
 7136 2596 74E1      		ldi r23,20
 7137 2598 5695      	1:	lsr r21
 7138 259a 4795      		ror r20
 7139 259c 3795      		ror r19
 7140 259e 2795      		ror r18
 7141 25a0 7A95      		dec r23
 7142 25a2 01F4      		brne 1b
 7143 25a4 3583      		std Z+5,r19
 7144 25a6 2483      		std Z+4,r18
 7145 25a8 0E94 0000 		call sprintf
 7146               	.LM783:
 7147 25ac 8DB7      		in r24,__SP_L__
 7148 25ae 9EB7      		in r25,__SP_H__
 7149 25b0 0696      		adiw r24,6
 7150 25b2 0FB6      		in __tmp_reg__,__SREG__
 7151 25b4 F894      		cli
 7152 25b6 9EBF      		out __SP_H__,r25
 7153 25b8 0FBE      		out __SREG__,__tmp_reg__
 7154 25ba 8DBF      		out __SP_L__,r24
 7155 25bc 80E0      		ldi r24,lo8(Text_SD_Size)
 7156 25be 90E0      		ldi r25,hi8(Text_SD_Size)
 7157 25c0 0E94 0000 		call WH1602_SetTextProgmemUpLine
 7158               	.LM784:
 7159 25c4 C801      		movw r24,r16
 7160 25c6 0E94 0000 		call WH1602_SetTextDownLine
 7161 25ca 80E1      		ldi r24,lo8(10000)
 7162 25cc 97E2      		ldi r25,hi8(10000)
 7163               	.LBB706:
 7164               	.LBB707:
 7165               	.LBB708:
 7166               	.LBB709:
 7167               	.LM785:
 7168 25ce 20E9      		ldi r18,lo8(400)
 7169 25d0 31E0      		ldi r19,hi8(400)
 7170               	.L443:
 7171 25d2 F901      		movw r30,r18
 7172               	/* #APP */
 7173               	 ;  105 "c:/winavr-20100110/lib/gcc/../../avr/include/util/delay_basic.h" 1
 7174 25d4 3197      		1: sbiw r30,1
 7175 25d6 01F4      		brne 1b
 7176               	 ;  0 "" 2
 7177               	/* #NOAPP */
 7178               	.LBE709:
 7179               	.LBE708:
 7180               	.LM786:
 7181 25d8 0197      		sbiw r24,1
 7182               	.LM787:
 7183 25da 01F4      		brne .L443
 7184               	.L444:
 7185               	/* epilogue start */
 7186               	.LBE707:
 7187               	.LBE706:
 7188               	.LM788:
 7189 25dc DF91      		pop r29
 7190 25de CF91      		pop r28
 7191 25e0 1F91      		pop r17
 7192 25e2 0F91      		pop r16
 7193 25e4 FF90      		pop r15
 7194 25e6 0895      		ret
 7195               	.LFE23:
 7197               	.global	FAT_Init
 7199               	FAT_Init:
 7200               	.LFB31:
 7201               	.LM789:
 7202 25e8 6F92      		push r6
 7203 25ea 7F92      		push r7
 7204 25ec 8F92      		push r8
 7205 25ee 9F92      		push r9
 7206 25f0 AF92      		push r10
 7207 25f2 BF92      		push r11
 7208 25f4 CF92      		push r12
 7209 25f6 DF92      		push r13
 7210 25f8 EF92      		push r14
 7211 25fa FF92      		push r15
 7212 25fc 0F93      		push r16
 7213 25fe 1F93      		push r17
 7214               	/* prologue: function */
 7215               	/* frame size = 0 */
 7216               	.LM790:
 7217 2600 80E0      		ldi r24,lo8(.LC4)
 7218 2602 90E0      		ldi r25,hi8(.LC4)
 7219 2604 0E94 0000 		call WH1602_SetTextUpLine
 7220               	.LM791:
 7221 2608 80E0      		ldi r24,lo8(.LC4)
 7222 260a 90E0      		ldi r25,hi8(.LC4)
 7223 260c 0E94 0000 		call WH1602_SetTextDownLine
 7224               	.LM792:
 7225 2610 8FEF      		ldi r24,lo8(-1)
 7226 2612 9FEF      		ldi r25,hi8(-1)
 7227 2614 AFEF      		ldi r26,hlo8(-1)
 7228 2616 BFEF      		ldi r27,hhi8(-1)
 7229 2618 8093 0000 		sts LastReadSector,r24
 7230 261c 9093 0000 		sts (LastReadSector)+1,r25
 7231 2620 A093 0000 		sts (LastReadSector)+2,r26
 7232 2624 B093 0000 		sts (LastReadSector)+3,r27
 7233               	.LM793:
 7234 2628 1092 0000 		sts FATOffset,__zero_reg__
 7235 262c 1092 0000 		sts (FATOffset)+1,__zero_reg__
 7236 2630 1092 0000 		sts (FATOffset)+2,__zero_reg__
 7237 2634 1092 0000 		sts (FATOffset)+3,__zero_reg__
 7238 2638 EE24      		clr r14
 7239 263a FF24      		clr r15
 7240 263c 8701      		movw r16,r14
 7241               	.LVL429:
 7242               	.L460:
 7243               	.LBB710:
 7244               	.LBB711:
 7245               	.LM794:
 7246 263e C801      		movw r24,r16
 7247 2640 B701      		movw r22,r14
 7248 2642 0E94 0000 		call GetByte
 7249               	.LM795:
 7250 2646 693E      		cpi r22,lo8(-23)
 7251 2648 01F0      		breq .L457
 7252 264a 6B3E      		cpi r22,lo8(-21)
 7253 264c 01F4      		brne .L458
 7254               	.L457:
 7255               	.LM796:
 7256 264e C801      		movw r24,r16
 7257 2650 B701      		movw r22,r14
 7258 2652 6150      		subi r22,lo8(-(511))
 7259 2654 7E4F      		sbci r23,hi8(-(511))
 7260 2656 8F4F      		sbci r24,hlo8(-(511))
 7261 2658 9F4F      		sbci r25,hhi8(-(511))
 7262 265a 0E94 0000 		call GetByte
 7263               	.LM797:
 7264 265e 6A3A      		cpi r22,lo8(-86)
 7265 2660 01F4      		brne .L458
 7266               	.LM798:
 7267 2662 C801      		movw r24,r16
 7268 2664 B701      		movw r22,r14
 7269 2666 6250      		subi r22,lo8(-(510))
 7270 2668 7E4F      		sbci r23,hi8(-(510))
 7271 266a 8F4F      		sbci r24,hlo8(-(510))
 7272 266c 9F4F      		sbci r25,hhi8(-(510))
 7273 266e 0E94 0000 		call GetByte
 7274               	.LM799:
 7275 2672 6535      		cpi r22,lo8(85)
 7276 2674 01F4      		brne .L458
 7277               	.LM800:
 7278 2676 E092 0000 		sts FATOffset,r14
 7279 267a F092 0000 		sts (FATOffset)+1,r15
 7280 267e 0093 0000 		sts (FATOffset)+2,r16
 7281 2682 1093 0000 		sts (FATOffset)+3,r17
 7282 2686 00C0      		rjmp .L459
 7283               	.L458:
 7284               	.LBE711:
 7285               	.LM801:
 7286 2688 0894      		sec
 7287 268a E11C      		adc r14,__zero_reg__
 7288 268c F11C      		adc r15,__zero_reg__
 7289 268e 011D      		adc r16,__zero_reg__
 7290 2690 111D      		adc r17,__zero_reg__
 7291 2692 20E0      		ldi r18,lo8(33554432)
 7292 2694 E216      		cp r14,r18
 7293 2696 20E0      		ldi r18,hi8(33554432)
 7294 2698 F206      		cpc r15,r18
 7295 269a 20E0      		ldi r18,hlo8(33554432)
 7296 269c 0207      		cpc r16,r18
 7297 269e 22E0      		ldi r18,hhi8(33554432)
 7298 26a0 1207      		cpc r17,r18
 7299 26a2 01F4      		brne .L460
 7300               	.L459:
 7301               	.LBE710:
 7302               	.LM802:
 7303 26a4 8FEF      		ldi r24,lo8(-1)
 7304 26a6 9FEF      		ldi r25,hi8(-1)
 7305 26a8 AFEF      		ldi r26,hlo8(-1)
 7306 26aa BFEF      		ldi r27,hhi8(-1)
 7307 26ac 8093 0000 		sts LastReadSector,r24
 7308 26b0 9093 0000 		sts (LastReadSector)+1,r25
 7309 26b4 A093 0000 		sts (LastReadSector)+2,r26
 7310 26b8 B093 0000 		sts (LastReadSector)+3,r27
 7311               	.LM803:
 7312 26bc 6DE0      		ldi r22,lo8(13)
 7313 26be 70E0      		ldi r23,hi8(13)
 7314 26c0 80E0      		ldi r24,hlo8(13)
 7315 26c2 90E0      		ldi r25,hhi8(13)
 7316 26c4 0E94 0000 		call GetByte
 7317 26c8 6093 0000 		sts SecPerClus,r22
 7318 26cc 7093 0000 		sts (SecPerClus)+1,r23
 7319 26d0 8093 0000 		sts (SecPerClus)+2,r24
 7320 26d4 9093 0000 		sts (SecPerClus)+3,r25
 7321               	.LM804:
 7322 26d8 6BE0      		ldi r22,lo8(11)
 7323 26da 70E0      		ldi r23,hi8(11)
 7324 26dc 80E0      		ldi r24,hlo8(11)
 7325 26de 90E0      		ldi r25,hhi8(11)
 7326 26e0 0E94 0000 		call GetShort
 7327 26e4 6093 0000 		sts BytsPerSec,r22
 7328 26e8 7093 0000 		sts (BytsPerSec)+1,r23
 7329 26ec 8093 0000 		sts (BytsPerSec)+2,r24
 7330 26f0 9093 0000 		sts (BytsPerSec)+3,r25
 7331               	.LM805:
 7332 26f4 6EE0      		ldi r22,lo8(14)
 7333 26f6 70E0      		ldi r23,hi8(14)
 7334 26f8 80E0      		ldi r24,hlo8(14)
 7335 26fa 90E0      		ldi r25,hhi8(14)
 7336 26fc 0E94 0000 		call GetShort
 7337 2700 6093 0000 		sts ResvdSecCnt,r22
 7338 2704 7093 0000 		sts (ResvdSecCnt)+1,r23
 7339 2708 8093 0000 		sts (ResvdSecCnt)+2,r24
 7340 270c 9093 0000 		sts (ResvdSecCnt)+3,r25
 7341               	.LM806:
 7342 2710 61E1      		ldi r22,lo8(17)
 7343 2712 70E0      		ldi r23,hi8(17)
 7344 2714 80E0      		ldi r24,hlo8(17)
 7345 2716 90E0      		ldi r25,hhi8(17)
 7346 2718 0E94 0000 		call GetShort
 7347 271c 7B01      		movw r14,r22
 7348 271e 8C01      		movw r16,r24
 7349               	.LVL430:
 7350 2720 2091 0000 		lds r18,BytsPerSec
 7351 2724 3091 0000 		lds r19,(BytsPerSec)+1
 7352 2728 4091 0000 		lds r20,(BytsPerSec)+2
 7353 272c 5091 0000 		lds r21,(BytsPerSec)+3
 7354 2730 CA01      		movw r24,r20
 7355 2732 B901      		movw r22,r18
 7356 2734 6150      		subi r22,lo8(-(-1))
 7357 2736 7040      		sbci r23,hi8(-(-1))
 7358 2738 8040      		sbci r24,hlo8(-(-1))
 7359 273a 9040      		sbci r25,hhi8(-(-1))
 7360 273c E5E0      		ldi r30,5
 7361 273e EE0C      	1:	lsl r14
 7362 2740 FF1C      		rol r15
 7363 2742 001F      		rol r16
 7364 2744 111F      		rol r17
 7365 2746 EA95      		dec r30
 7366 2748 01F4      		brne 1b
 7367 274a 6E0D      		add r22,r14
 7368 274c 7F1D      		adc r23,r15
 7369 274e 801F      		adc r24,r16
 7370 2750 911F      		adc r25,r17
 7371 2752 0E94 0000 		call __udivmodsi4
 7372 2756 CA01      		movw r24,r20
 7373 2758 B901      		movw r22,r18
 7374 275a 0E94 0000 		call __floatunsisf
 7375 275e 0E94 0000 		call ceil
 7376 2762 0E94 0000 		call __fixunssfsi
 7377 2766 6093 0000 		sts RootDirSectors,r22
 7378 276a 7093 0000 		sts (RootDirSectors)+1,r23
 7379 276e 8093 0000 		sts (RootDirSectors)+2,r24
 7380 2772 9093 0000 		sts (RootDirSectors)+3,r25
 7381               	.LM807:
 7382 2776 66E1      		ldi r22,lo8(22)
 7383 2778 70E0      		ldi r23,hi8(22)
 7384 277a 80E0      		ldi r24,hlo8(22)
 7385 277c 90E0      		ldi r25,hhi8(22)
 7386 277e 0E94 0000 		call GetShort
 7387 2782 6093 0000 		sts FATSz,r22
 7388 2786 7093 0000 		sts (FATSz)+1,r23
 7389 278a 8093 0000 		sts (FATSz)+2,r24
 7390 278e 9093 0000 		sts (FATSz)+3,r25
 7391               	.LM808:
 7392 2792 6115      		cp r22,__zero_reg__
 7393 2794 7105      		cpc r23,__zero_reg__
 7394 2796 8105      		cpc r24,__zero_reg__
 7395 2798 9105      		cpc r25,__zero_reg__
 7396 279a 01F4      		brne .L461
 7397 279c 64E2      		ldi r22,lo8(36)
 7398 279e 70E0      		ldi r23,hi8(36)
 7399 27a0 80E0      		ldi r24,hlo8(36)
 7400 27a2 90E0      		ldi r25,hhi8(36)
 7401 27a4 0E94 0000 		call GetLong
 7402 27a8 6093 0000 		sts FATSz,r22
 7403 27ac 7093 0000 		sts (FATSz)+1,r23
 7404 27b0 8093 0000 		sts (FATSz)+2,r24
 7405 27b4 9093 0000 		sts (FATSz)+3,r25
 7406               	.L461:
 7407               	.LM809:
 7408 27b8 63E1      		ldi r22,lo8(19)
 7409 27ba 70E0      		ldi r23,hi8(19)
 7410 27bc 80E0      		ldi r24,hlo8(19)
 7411 27be 90E0      		ldi r25,hhi8(19)
 7412 27c0 0E94 0000 		call GetShort
 7413 27c4 5B01      		movw r10,r22
 7414 27c6 6C01      		movw r12,r24
 7415               	.LVL431:
 7416               	.LM810:
 7417 27c8 6115      		cp r22,__zero_reg__
 7418 27ca 7105      		cpc r23,__zero_reg__
 7419 27cc 8105      		cpc r24,__zero_reg__
 7420 27ce 9105      		cpc r25,__zero_reg__
 7421 27d0 01F4      		brne .L462
 7422               	.LVL432:
 7423 27d2 60E2      		ldi r22,lo8(32)
 7424 27d4 70E0      		ldi r23,hi8(32)
 7425 27d6 80E0      		ldi r24,hlo8(32)
 7426 27d8 90E0      		ldi r25,hhi8(32)
 7427               	.LVL433:
 7428 27da 0E94 0000 		call GetLong
 7429 27de 5B01      		movw r10,r22
 7430 27e0 6C01      		movw r12,r24
 7431               	.LVL434:
 7432               	.L462:
 7433               	.LM811:
 7434 27e2 E090 0000 		lds r14,ResvdSecCnt
 7435 27e6 F090 0000 		lds r15,(ResvdSecCnt)+1
 7436 27ea 0091 0000 		lds r16,(ResvdSecCnt)+2
 7437 27ee 1091 0000 		lds r17,(ResvdSecCnt)+3
 7438 27f2 60E1      		ldi r22,lo8(16)
 7439 27f4 70E0      		ldi r23,hi8(16)
 7440 27f6 80E0      		ldi r24,hlo8(16)
 7441 27f8 90E0      		ldi r25,hhi8(16)
 7442 27fa 0E94 0000 		call GetByte
 7443 27fe 2091 0000 		lds r18,RootDirSectors
 7444 2802 3091 0000 		lds r19,(RootDirSectors)+1
 7445 2806 4091 0000 		lds r20,(RootDirSectors)+2
 7446 280a 5091 0000 		lds r21,(RootDirSectors)+3
 7447 280e 3501      		movw r6,r10
 7448 2810 4601      		movw r8,r12
 7449 2812 6E18      		sub r6,r14
 7450 2814 7F08      		sbc r7,r15
 7451 2816 800A      		sbc r8,r16
 7452 2818 910A      		sbc r9,r17
 7453 281a 8401      		movw r16,r8
 7454 281c 7301      		movw r14,r6
 7455 281e E21A      		sub r14,r18
 7456 2820 F30A      		sbc r15,r19
 7457 2822 040B      		sbc r16,r20
 7458 2824 150B      		sbc r17,r21
 7459 2826 2091 0000 		lds r18,FATSz
 7460 282a 3091 0000 		lds r19,(FATSz)+1
 7461 282e 4091 0000 		lds r20,(FATSz)+2
 7462 2832 5091 0000 		lds r21,(FATSz)+3
 7463 2836 0E94 0000 		call __mulsi3
 7464 283a E61A      		sub r14,r22
 7465 283c F70A      		sbc r15,r23
 7466 283e 080B      		sbc r16,r24
 7467 2840 190B      		sbc r17,r25
 7468 2842 E092 0000 		sts DataSec,r14
 7469 2846 F092 0000 		sts (DataSec)+1,r15
 7470 284a 0093 0000 		sts (DataSec)+2,r16
 7471 284e 1093 0000 		sts (DataSec)+3,r17
 7472               	.LM812:
 7473 2852 2091 0000 		lds r18,SecPerClus
 7474 2856 3091 0000 		lds r19,(SecPerClus)+1
 7475 285a 4091 0000 		lds r20,(SecPerClus)+2
 7476 285e 5091 0000 		lds r21,(SecPerClus)+3
 7477 2862 C801      		movw r24,r16
 7478 2864 B701      		movw r22,r14
 7479 2866 0E94 0000 		call __udivmodsi4
 7480 286a CA01      		movw r24,r20
 7481 286c B901      		movw r22,r18
 7482 286e 0E94 0000 		call __floatunsisf
 7483 2872 0E94 0000 		call floor
 7484 2876 0E94 0000 		call __fixunssfsi
 7485 287a 6093 0000 		sts CountofClusters,r22
 7486 287e 7093 0000 		sts (CountofClusters)+1,r23
 7487 2882 8093 0000 		sts (CountofClusters)+2,r24
 7488 2886 9093 0000 		sts (CountofClusters)+3,r25
 7489               	.LM813:
 7490 288a E090 0000 		lds r14,ResvdSecCnt
 7491 288e F090 0000 		lds r15,(ResvdSecCnt)+1
 7492 2892 0091 0000 		lds r16,(ResvdSecCnt)+2
 7493 2896 1091 0000 		lds r17,(ResvdSecCnt)+3
 7494 289a 60E1      		ldi r22,lo8(16)
 7495 289c 70E0      		ldi r23,hi8(16)
 7496 289e 80E0      		ldi r24,hlo8(16)
 7497 28a0 90E0      		ldi r25,hhi8(16)
 7498 28a2 0E94 0000 		call GetByte
 7499 28a6 2091 0000 		lds r18,RootDirSectors
 7500 28aa 3091 0000 		lds r19,(RootDirSectors)+1
 7501 28ae 4091 0000 		lds r20,(RootDirSectors)+2
 7502 28b2 5091 0000 		lds r21,(RootDirSectors)+3
 7503 28b6 E20E      		add r14,r18
 7504 28b8 F31E      		adc r15,r19
 7505 28ba 041F      		adc r16,r20
 7506 28bc 151F      		adc r17,r21
 7507 28be 2091 0000 		lds r18,FATSz
 7508 28c2 3091 0000 		lds r19,(FATSz)+1
 7509 28c6 4091 0000 		lds r20,(FATSz)+2
 7510 28ca 5091 0000 		lds r21,(FATSz)+3
 7511 28ce 0E94 0000 		call __mulsi3
 7512 28d2 E60E      		add r14,r22
 7513 28d4 F71E      		adc r15,r23
 7514 28d6 081F      		adc r16,r24
 7515 28d8 191F      		adc r17,r25
 7516 28da E092 0000 		sts FirstDataSector,r14
 7517 28de F092 0000 		sts (FirstDataSector)+1,r15
 7518 28e2 0093 0000 		sts (FirstDataSector)+2,r16
 7519 28e6 1093 0000 		sts (FirstDataSector)+3,r17
 7520               	.LM814:
 7521 28ea 1092 0000 		sts FATType,__zero_reg__
 7522               	.LM815:
 7523 28ee 80E0      		ldi r24,lo8(Text_FAT_Type)
 7524 28f0 90E0      		ldi r25,hi8(Text_FAT_Type)
 7525 28f2 0E94 0000 		call WH1602_SetTextProgmemUpLine
 7526               	.LM816:
 7527 28f6 8091 0000 		lds r24,CountofClusters
 7528 28fa 9091 0000 		lds r25,(CountofClusters)+1
 7529 28fe A091 0000 		lds r26,(CountofClusters)+2
 7530 2902 B091 0000 		lds r27,(CountofClusters)+3
 7531 2906 853F      		cpi r24,lo8(4085)
 7532 2908 2FE0      		ldi r18,hi8(4085)
 7533 290a 9207      		cpc r25,r18
 7534 290c 20E0      		ldi r18,hlo8(4085)
 7535 290e A207      		cpc r26,r18
 7536 2910 20E0      		ldi r18,hhi8(4085)
 7537 2912 B207      		cpc r27,r18
 7538 2914 00F4      		brsh .L463
 7539               	.LM817:
 7540 2916 80E0      		ldi r24,lo8(Text_FAT12)
 7541 2918 90E0      		ldi r25,hi8(Text_FAT12)
 7542 291a 0E94 0000 		call WH1602_SetTextProgmemDownLine
 7543 291e 80E5      		ldi r24,lo8(-15536)
 7544 2920 93EC      		ldi r25,hi8(-15536)
 7545               	.LVL435:
 7546               	.LBB712:
 7547               	.LBB713:
 7548               	.LBB714:
 7549               	.LBB715:
 7550               	.LM818:
 7551 2922 20E9      		ldi r18,lo8(400)
 7552 2924 31E0      		ldi r19,hi8(400)
 7553               	.L464:
 7554 2926 F901      		movw r30,r18
 7555               	.LVL436:
 7556               	/* #APP */
 7557               	 ;  105 "c:/winavr-20100110/lib/gcc/../../avr/include/util/delay_basic.h" 1
 7558 2928 3197      		1: sbiw r30,1
 7559 292a 01F4      		brne 1b
 7560               	 ;  0 "" 2
 7561               	/* #NOAPP */
 7562               	.LBE715:
 7563               	.LBE714:
 7564               	.LM819:
 7565 292c 0197      		sbiw r24,1
 7566               	.LM820:
 7567 292e 01F4      		brne .L464
 7568               	.LBE713:
 7569               	.LBE712:
 7570               	.LM821:
 7571 2930 1092 0000 		sts FATType,__zero_reg__
 7572 2934 00C0      		rjmp .L465
 7573               	.LVL437:
 7574               	.L463:
 7575               	.LM822:
 7576 2936 855F      		subi r24,lo8(65525)
 7577 2938 9F4F      		sbci r25,hi8(65525)
 7578 293a A040      		sbci r26,hlo8(65525)
 7579 293c B040      		sbci r27,hhi8(65525)
 7580 293e 00F4      		brsh .L466
 7581               	.LM823:
 7582 2940 80E0      		ldi r24,lo8(Text_FAT16)
 7583 2942 90E0      		ldi r25,hi8(Text_FAT16)
 7584 2944 0E94 0000 		call WH1602_SetTextProgmemDownLine
 7585 2948 80E2      		ldi r24,lo8(20000)
 7586 294a 9EE4      		ldi r25,hi8(20000)
 7587               	.LVL438:
 7588               	.LBB716:
 7589               	.LBB717:
 7590               	.LBB718:
 7591               	.LBB719:
 7592               	.LM824:
 7593 294c 20E9      		ldi r18,lo8(400)
 7594 294e 31E0      		ldi r19,hi8(400)
 7595               	.L467:
 7596 2950 F901      		movw r30,r18
 7597               	.LVL439:
 7598               	/* #APP */
 7599               	 ;  105 "c:/winavr-20100110/lib/gcc/../../avr/include/util/delay_basic.h" 1
 7600 2952 3197      		1: sbiw r30,1
 7601 2954 01F4      		brne 1b
 7602               	 ;  0 "" 2
 7603               	/* #NOAPP */
 7604               	.LBE719:
 7605               	.LBE718:
 7606               	.LM825:
 7607 2956 0197      		sbiw r24,1
 7608               	.LM826:
 7609 2958 01F4      		brne .L467
 7610               	.LBE717:
 7611               	.LBE716:
 7612               	.LM827:
 7613 295a 81E0      		ldi r24,lo8(1)
 7614               	.LVL440:
 7615 295c 00C0      		rjmp .L475
 7616               	.LVL441:
 7617               	.L466:
 7618               	.LM828:
 7619 295e 80E0      		ldi r24,lo8(Text_FAT32)
 7620 2960 90E0      		ldi r25,hi8(Text_FAT32)
 7621 2962 0E94 0000 		call WH1602_SetTextProgmemDownLine
 7622 2966 80E5      		ldi r24,lo8(-15536)
 7623 2968 93EC      		ldi r25,hi8(-15536)
 7624               	.LVL442:
 7625               	.LBB720:
 7626               	.LBB721:
 7627               	.LBB722:
 7628               	.LBB723:
 7629               	.LM829:
 7630 296a 20E9      		ldi r18,lo8(400)
 7631 296c 31E0      		ldi r19,hi8(400)
 7632               	.L468:
 7633 296e F901      		movw r30,r18
 7634               	.LVL443:
 7635               	/* #APP */
 7636               	 ;  105 "c:/winavr-20100110/lib/gcc/../../avr/include/util/delay_basic.h" 1
 7637 2970 3197      		1: sbiw r30,1
 7638 2972 01F4      		brne 1b
 7639               	 ;  0 "" 2
 7640               	/* #NOAPP */
 7641               	.LBE723:
 7642               	.LBE722:
 7643               	.LM830:
 7644 2974 0197      		sbiw r24,1
 7645               	.LM831:
 7646 2976 01F4      		brne .L468
 7647               	.LBE721:
 7648               	.LBE720:
 7649               	.LM832:
 7650 2978 82E0      		ldi r24,lo8(2)
 7651               	.LVL444:
 7652               	.L475:
 7653 297a 8093 0000 		sts FATType,r24
 7654               	.LVL445:
 7655               	.L465:
 7656               	.LM833:
 7657 297e 8091 0000 		lds r24,FATType
 7658               	.LVL446:
 7659 2982 8823      		tst r24
 7660 2984 01F4      		brne .+2
 7661 2986 00C0      		rjmp .L470
 7662               	.LM834:
 7663 2988 8230      		cpi r24,lo8(2)
 7664 298a 01F4      		brne .+2
 7665 298c 00C0      		rjmp .L470
 7666               	.LM835:
 7667 298e A090 0000 		lds r10,ResvdSecCnt
 7668 2992 B090 0000 		lds r11,(ResvdSecCnt)+1
 7669 2996 C090 0000 		lds r12,(ResvdSecCnt)+2
 7670 299a D090 0000 		lds r13,(ResvdSecCnt)+3
 7671               	.LVL447:
 7672 299e 60E1      		ldi r22,lo8(16)
 7673 29a0 70E0      		ldi r23,hi8(16)
 7674 29a2 80E0      		ldi r24,hlo8(16)
 7675 29a4 90E0      		ldi r25,hhi8(16)
 7676 29a6 0E94 0000 		call GetByte
 7677               	.LVL448:
 7678 29aa 2091 0000 		lds r18,FATSz
 7679 29ae 3091 0000 		lds r19,(FATSz)+1
 7680 29b2 4091 0000 		lds r20,(FATSz)+2
 7681 29b6 5091 0000 		lds r21,(FATSz)+3
 7682 29ba 0E94 0000 		call __mulsi3
 7683 29be 7B01      		movw r14,r22
 7684 29c0 8C01      		movw r16,r24
 7685 29c2 EA0C      		add r14,r10
 7686 29c4 FB1C      		adc r15,r11
 7687 29c6 0C1D      		adc r16,r12
 7688 29c8 1D1D      		adc r17,r13
 7689 29ca E092 0000 		sts FirstRootFolderSecNum,r14
 7690 29ce F092 0000 		sts (FirstRootFolderSecNum)+1,r15
 7691 29d2 0093 0000 		sts (FirstRootFolderSecNum)+2,r16
 7692 29d6 1093 0000 		sts (FirstRootFolderSecNum)+3,r17
 7693               	.LM836:
 7694 29da A090 0000 		lds r10,BytsPerSec
 7695 29de B090 0000 		lds r11,(BytsPerSec)+1
 7696 29e2 C090 0000 		lds r12,(BytsPerSec)+2
 7697 29e6 D090 0000 		lds r13,(BytsPerSec)+3
 7698 29ea 2091 0000 		lds r18,SecPerClus
 7699 29ee 3091 0000 		lds r19,(SecPerClus)+1
 7700 29f2 4091 0000 		lds r20,(SecPerClus)+2
 7701 29f6 5091 0000 		lds r21,(SecPerClus)+3
 7702 29fa C601      		movw r24,r12
 7703 29fc B501      		movw r22,r10
 7704 29fe 0E94 0000 		call __mulsi3
 7705 2a02 6093 0000 		sts ClusterSize,r22
 7706 2a06 7093 0000 		sts (ClusterSize)+1,r23
 7707 2a0a 8093 0000 		sts (ClusterSize)+2,r24
 7708 2a0e 9093 0000 		sts (ClusterSize)+3,r25
 7709               	.LM837:
 7710 2a12 C801      		movw r24,r16
 7711 2a14 B701      		movw r22,r14
 7712 2a16 A601      		movw r20,r12
 7713 2a18 9501      		movw r18,r10
 7714 2a1a 0E94 0000 		call __mulsi3
 7715 2a1e 7B01      		movw r14,r22
 7716 2a20 8C01      		movw r16,r24
 7717 2a22 6093 0000 		sts FirstRootFolderAddr,r22
 7718 2a26 7093 0000 		sts (FirstRootFolderAddr)+1,r23
 7719 2a2a 8093 0000 		sts (FirstRootFolderAddr)+2,r24
 7720 2a2e 9093 0000 		sts (FirstRootFolderAddr)+3,r25
 7721               	.LM838:
 7722 2a32 6093 0000 		sts sFATRecordPointer,r22
 7723 2a36 7093 0000 		sts (sFATRecordPointer)+1,r23
 7724 2a3a 8093 0000 		sts (sFATRecordPointer)+2,r24
 7725 2a3e 9093 0000 		sts (sFATRecordPointer)+3,r25
 7726               	.LM839:
 7727 2a42 6093 0000 		sts sFATRecordPointer+4,r22
 7728 2a46 7093 0000 		sts (sFATRecordPointer+4)+1,r23
 7729 2a4a 8093 0000 		sts (sFATRecordPointer+4)+2,r24
 7730 2a4e 9093 0000 		sts (sFATRecordPointer+4)+3,r25
 7731               	.LM840:
 7732 2a52 1092 0000 		sts sFATRecordPointer+8,__zero_reg__
 7733 2a56 1092 0000 		sts (sFATRecordPointer+8)+1,__zero_reg__
 7734 2a5a 1092 0000 		sts (sFATRecordPointer+8)+2,__zero_reg__
 7735 2a5e 1092 0000 		sts (sFATRecordPointer+8)+3,__zero_reg__
 7736               	.LM841:
 7737 2a62 1092 0000 		sts sFATRecordPointer+12,__zero_reg__
 7738 2a66 1092 0000 		sts (sFATRecordPointer+12)+1,__zero_reg__
 7739 2a6a 1092 0000 		sts (sFATRecordPointer+12)+2,__zero_reg__
 7740 2a6e 1092 0000 		sts (sFATRecordPointer+12)+3,__zero_reg__
 7741               	.LM842:
 7742 2a72 2091 0000 		lds r18,RootDirSectors
 7743 2a76 3091 0000 		lds r19,(RootDirSectors)+1
 7744 2a7a 4091 0000 		lds r20,(RootDirSectors)+2
 7745 2a7e 5091 0000 		lds r21,(RootDirSectors)+3
 7746 2a82 C601      		movw r24,r12
 7747 2a84 B501      		movw r22,r10
 7748 2a86 0E94 0000 		call __mulsi3
 7749 2a8a 6E0D      		add r22,r14
 7750 2a8c 7F1D      		adc r23,r15
 7751 2a8e 801F      		adc r24,r16
 7752 2a90 911F      		adc r25,r17
 7753 2a92 6093 0000 		sts sFATRecordPointer+20,r22
 7754 2a96 7093 0000 		sts (sFATRecordPointer+20)+1,r23
 7755 2a9a 8093 0000 		sts (sFATRecordPointer+20)+2,r24
 7756 2a9e 9093 0000 		sts (sFATRecordPointer+20)+3,r25
 7757               	.LM843:
 7758 2aa2 E092 0000 		sts sFATRecordPointer+16,r14
 7759 2aa6 F092 0000 		sts (sFATRecordPointer+16)+1,r15
 7760 2aaa 0093 0000 		sts (sFATRecordPointer+16)+2,r16
 7761 2aae 1093 0000 		sts (sFATRecordPointer+16)+3,r17
 7762               	.LVL449:
 7763               	.L470:
 7764               	/* epilogue start */
 7765               	.LM844:
 7766 2ab2 1F91      		pop r17
 7767 2ab4 0F91      		pop r16
 7768 2ab6 FF90      		pop r15
 7769 2ab8 EF90      		pop r14
 7770 2aba DF90      		pop r13
 7771 2abc CF90      		pop r12
 7772 2abe BF90      		pop r11
 7773 2ac0 AF90      		pop r10
 7774               	.LVL450:
 7775 2ac2 9F90      		pop r9
 7776 2ac4 8F90      		pop r8
 7777 2ac6 7F90      		pop r7
 7778 2ac8 6F90      		pop r6
 7779 2aca 0895      		ret
 7780               	.LFE31:
 7782               		.data
 7783               	.LC8:
 7784 0069 3E20 5350 		.string	"> SPEED TAPE x1 <"
 7784      4545 4420 
 7784      5441 5045 
 7784      2078 3120 
 7784      3C00 
 7785               	.LC9:
 7786 007b 3E20 5350 		.string	"> SPEED TAPE x2 <"
 7786      4545 4420 
 7786      5441 5045 
 7786      2078 3220 
 7786      3C00 
 7787               	.LC10:
 7788 008d 3E20 5350 		.string	"> SPEED TAPE x4 <"
 7788      4545 4420 
 7788      5441 5045 
 7788      2078 3420 
 7788      3C00 
 7789               	.LC11:
 7790 009f 3E20 2020 		.string	">   TEST RAM    <"
 7790      5445 5354 
 7790      2052 414D 
 7790      2020 2020 
 7790      3C00 
 7791               		.text
 7792               	.global	main
 7794               	main:
 7795               	.LFB43:
 7796               	.LM845:
 7797 2acc 1F93      		push r17
 7798 2ace CF93      		push r28
 7799 2ad0 DF93      		push r29
 7800               	/* prologue: function */
 7801               	/* frame size = 0 */
 7802               	.LM846:
 7803 2ad2 0E94 0000 		call InitAVR
 7804               	.LM847:
 7805 2ad6 0E94 0000 		call DRAM_Init
 7806               	.LM848:
 7807 2ada 0E94 0000 		call WH1602_Init
 7808               	.LM849:
 7809 2ade 0E94 0000 		call SD_Init
 7810               	.LM850:
 7811 2ae2 0E94 0000 		call FAT_Init
 7812 2ae6 10E0      		ldi r17,lo8(0)
 7813               	.LVL451:
 7814               	.LBB724:
 7815               	.LBB725:
 7816               	.LBB726:
 7817               	.LBB727:
 7818               	.LM851:
 7819 2ae8 C0E9      		ldi r28,lo8(400)
 7820 2aea D1E0      		ldi r29,hi8(400)
 7821 2aec 00C0      		rjmp .L497
 7822               	.LVL452:
 7823               	.L484:
 7824               	.LBE727:
 7825               	.LBE726:
 7826               	.LBE725:
 7827               	.LBE724:
 7828               	.LM852:
 7829 2aee 13E0      		ldi r17,lo8(3)
 7830               	.L497:
 7831               	.LM853:
 7832 2af0 80E0      		ldi r24,lo8(Text_Main_Menu_Select)
 7833 2af2 90E0      		ldi r25,hi8(Text_Main_Menu_Select)
 7834               	.LVL453:
 7835 2af4 0E94 0000 		call WH1602_SetTextProgmemUpLine
 7836               	.LVL454:
 7837               	.LM854:
 7838 2af8 1123      		tst r17
 7839 2afa 01F4      		brne .L478
 7840 2afc 80E0      		ldi r24,lo8(string)
 7841 2afe 90E0      		ldi r25,hi8(string)
 7842 2b00 60E0      		ldi r22,lo8(.LC8)
 7843 2b02 70E0      		ldi r23,hi8(.LC8)
 7844 2b04 00C0      		rjmp .L499
 7845               	.L478:
 7846               	.LM855:
 7847 2b06 1130      		cpi r17,lo8(1)
 7848 2b08 01F4      		brne .L480
 7849 2b0a 80E0      		ldi r24,lo8(string)
 7850 2b0c 90E0      		ldi r25,hi8(string)
 7851 2b0e 60E0      		ldi r22,lo8(.LC9)
 7852 2b10 70E0      		ldi r23,hi8(.LC9)
 7853 2b12 00C0      		rjmp .L499
 7854               	.L480:
 7855               	.LM856:
 7856 2b14 1230      		cpi r17,lo8(2)
 7857 2b16 01F4      		brne .L481
 7858 2b18 80E0      		ldi r24,lo8(string)
 7859 2b1a 90E0      		ldi r25,hi8(string)
 7860 2b1c 60E0      		ldi r22,lo8(.LC10)
 7861 2b1e 70E0      		ldi r23,hi8(.LC10)
 7862 2b20 00C0      		rjmp .L499
 7863               	.L481:
 7864               	.LM857:
 7865 2b22 1330      		cpi r17,lo8(3)
 7866 2b24 01F4      		brne .L479
 7867 2b26 80E0      		ldi r24,lo8(string)
 7868 2b28 90E0      		ldi r25,hi8(string)
 7869 2b2a 60E0      		ldi r22,lo8(.LC11)
 7870 2b2c 70E0      		ldi r23,hi8(.LC11)
 7871               	.L499:
 7872 2b2e 0E94 0000 		call strcpy
 7873               	.L479:
 7874               	.LM858:
 7875 2b32 80E0      		ldi r24,lo8(string)
 7876 2b34 90E0      		ldi r25,hi8(string)
 7877 2b36 0E94 0000 		call WH1602_SetTextDownLine
 7878 2b3a 88E8      		ldi r24,lo8(5000)
 7879 2b3c 93E1      		ldi r25,hi8(5000)
 7880               	.LVL455:
 7881               	.L482:
 7882               	.LBB731:
 7883               	.LBB730:
 7884               	.LBB729:
 7885               	.LBB728:
 7886               	.LM859:
 7887 2b3e FE01      		movw r30,r28
 7888               	.LVL456:
 7889               	/* #APP */
 7890               	 ;  105 "c:/winavr-20100110/lib/gcc/../../avr/include/util/delay_basic.h" 1
 7891 2b40 3197      		1: sbiw r30,1
 7892 2b42 01F4      		brne 1b
 7893               	 ;  0 "" 2
 7894               	/* #NOAPP */
 7895               	.LBE728:
 7896               	.LBE729:
 7897               	.LM860:
 7898 2b44 0197      		sbiw r24,1
 7899               	.LM861:
 7900 2b46 01F4      		brne .L482
 7901               	.L493:
 7902               	.LBE730:
 7903               	.LBE731:
 7904               	.LM862:
 7905 2b48 839B      		sbis 48-32,3
 7906 2b4a 00C0      		rjmp .L483
 7907               	.LM863:
 7908 2b4c 1123      		tst r17
 7909 2b4e 01F0      		breq .L484
 7910               	.LM864:
 7911 2b50 1150      		subi r17,lo8(-(-1))
 7912 2b52 00C0      		rjmp .L497
 7913               	.L483:
 7914               	.LM865:
 7915 2b54 819B      		sbis 48-32,1
 7916 2b56 00C0      		rjmp .L485
 7917               	.LM866:
 7918 2b58 1330      		cpi r17,lo8(3)
 7919 2b5a 01F4      		brne .L486
 7920 2b5c 10E0      		ldi r17,lo8(0)
 7921 2b5e 00C0      		rjmp .L497
 7922               	.L486:
 7923               	.LM867:
 7924 2b60 1F5F      		subi r17,lo8(-(1))
 7925 2b62 00C0      		rjmp .L497
 7926               	.L485:
 7927               	.LM868:
 7928 2b64 849B      		sbis 48-32,4
 7929 2b66 00C0      		rjmp .L493
 7930               	.LM869:
 7931 2b68 1123      		tst r17
 7932 2b6a 01F4      		brne .L488
 7933               	.LM870:
 7934 2b6c 1092 0000 		sts Speed,__zero_reg__
 7935 2b70 00C0      		rjmp .L498
 7936               	.L488:
 7937               	.LM871:
 7938 2b72 1130      		cpi r17,lo8(1)
 7939 2b74 01F0      		breq .L500
 7940               	.L489:
 7941               	.LM872:
 7942 2b76 1230      		cpi r17,lo8(2)
 7943 2b78 01F4      		brne .L490
 7944               	.L500:
 7945               	.LM873:
 7946 2b7a 1093 0000 		sts Speed,r17
 7947               	.L498:
 7948               	.LM874:
 7949 2b7e 0E94 0000 		call TapeMenu
 7950               	.LVL457:
 7951 2b82 00C0      		rjmp .L497
 7952               	.LVL458:
 7953               	.L490:
 7954               	.LM875:
 7955 2b84 1330      		cpi r17,lo8(3)
 7956 2b86 01F0      		breq .+2
 7957 2b88 00C0      		rjmp .L497
 7958 2b8a 0E94 0000 		call MemoryTest
 7959               	.LVL459:
 7960 2b8e 00C0      		rjmp .L497
 7961               	.LFE43:
 7963               	.global	Text_Main_Menu_Select
 7964               		.section	.progmem.data,"a",@progbits
 7967               	Text_Main_Menu_Select:
 7968 0000 2020 2020 		.string	"    Select    "
 7968      5365 6C65 
 7968      6374 2020 
 7968      2020 00
 7969 000f 00        		.string	""
 7970               	.global	Text_Main_Memory_Test
 7973               	Text_Main_Memory_Test:
 7974 0010 2020 2054 		.string	"   TEST RAM   "
 7974      4553 5420 
 7974      5241 4D20 
 7974      2020 00
 7975 001f 00        		.string	""
 7976               	.global	Text_Main_Memory_Test_Error
 7979               	Text_Main_Memory_Test_Error:
 7980 0020 2020 4552 		.string	"  ERROR RAM ! "
 7980      524F 5220 
 7980      5241 4D20 
 7980      2120 00
 7981 002f 00        		.string	""
 7982               	.global	Text_Main_Memory_Test_OK
 7985               	Text_Main_Memory_Test_OK:
 7986 0030 2020 5445 		.string	"  TEST RAM ok "
 7986      5354 2052 
 7986      414D 206F 
 7986      6B20 00
 7987 003f 00        		.string	""
 7988               	.global	Text_Tape_Menu_No_Image
 7991               	Text_Tape_Menu_No_Image:
 7992 0040 2020 2020 		.string	"    No tap !  "
 7992      4E6F 2074 
 7992      6170 2021 
 7992      2020 00
 7993 004f 00        		.string	""
 7994               	.global	BlockSize
 7995               	.global	BlockSize
 7996               		.section .bss
 7999               	BlockSize:
 8000 0000 0000      		.skip 2,0
 8001               	.global	DataCounter
 8002               	.global	DataCounter
 8005               	DataCounter:
 8006 0002 0000      		.skip 2,0
 8007               	.global	LeadToneCounter
 8008               	.global	LeadToneCounter
 8011               	LeadToneCounter:
 8012 0004 0000      		.skip 2,0
 8013               	.global	TapeOutMode
 8014               	.global	TapeOutMode
 8017               	TapeOutMode:
 8018 0006 00        		.skip 1,0
 8019               	.global	TapeOutVolume
 8020               	.global	TapeOutVolume
 8023               	TapeOutVolume:
 8024 0007 00        		.skip 1,0
 8025               	.global	RusCodeTable
 8026               		.section	.progmem.data
 8029               	RusCodeTable:
 8030 0050 C0        		.byte	-64
 8031 0051 41        		.byte	65
 8032 0052 C1        		.byte	-63
 8033 0053 A0        		.byte	-96
 8034 0054 C2        		.byte	-62
 8035 0055 42        		.byte	66
 8036 0056 C3        		.byte	-61
 8037 0057 A1        		.byte	-95
 8038 0058 C4        		.byte	-60
 8039 0059 E0        		.byte	-32
 8040 005a C5        		.byte	-59
 8041 005b 45        		.byte	69
 8042 005c A8        		.byte	-88
 8043 005d A2        		.byte	-94
 8044 005e C6        		.byte	-58
 8045 005f A3        		.byte	-93
 8046 0060 C7        		.byte	-57
 8047 0061 A4        		.byte	-92
 8048 0062 C8        		.byte	-56
 8049 0063 A5        		.byte	-91
 8050 0064 C9        		.byte	-55
 8051 0065 A6        		.byte	-90
 8052 0066 CA        		.byte	-54
 8053 0067 4B        		.byte	75
 8054 0068 CB        		.byte	-53
 8055 0069 A7        		.byte	-89
 8056 006a CC        		.byte	-52
 8057 006b 4D        		.byte	77
 8058 006c CD        		.byte	-51
 8059 006d 48        		.byte	72
 8060 006e CE        		.byte	-50
 8061 006f 4F        		.byte	79
 8062 0070 CF        		.byte	-49
 8063 0071 A8        		.byte	-88
 8064 0072 D0        		.byte	-48
 8065 0073 50        		.byte	80
 8066 0074 D1        		.byte	-47
 8067 0075 43        		.byte	67
 8068 0076 D2        		.byte	-46
 8069 0077 54        		.byte	84
 8070 0078 D3        		.byte	-45
 8071 0079 A9        		.byte	-87
 8072 007a D4        		.byte	-44
 8073 007b AA        		.byte	-86
 8074 007c D5        		.byte	-43
 8075 007d 58        		.byte	88
 8076 007e D6        		.byte	-42
 8077 007f E1        		.byte	-31
 8078 0080 D7        		.byte	-41
 8079 0081 AB        		.byte	-85
 8080 0082 D8        		.byte	-40
 8081 0083 AC        		.byte	-84
 8082 0084 D9        		.byte	-39
 8083 0085 E2        		.byte	-30
 8084 0086 DA        		.byte	-38
 8085 0087 AD        		.byte	-83
 8086 0088 DB        		.byte	-37
 8087 0089 AE        		.byte	-82
 8088 008a DC        		.byte	-36
 8089 008b 62        		.byte	98
 8090 008c DD        		.byte	-35
 8091 008d AF        		.byte	-81
 8092 008e DE        		.byte	-34
 8093 008f B0        		.byte	-80
 8094 0090 DF        		.byte	-33
 8095 0091 B1        		.byte	-79
 8096 0092 E0        		.byte	-32
 8097 0093 61        		.byte	97
 8098 0094 E1        		.byte	-31
 8099 0095 B2        		.byte	-78
 8100 0096 E2        		.byte	-30
 8101 0097 B3        		.byte	-77
 8102 0098 E3        		.byte	-29
 8103 0099 B4        		.byte	-76
 8104 009a E4        		.byte	-28
 8105 009b E3        		.byte	-29
 8106 009c E5        		.byte	-27
 8107 009d 65        		.byte	101
 8108 009e B8        		.byte	-72
 8109 009f B5        		.byte	-75
 8110 00a0 E6        		.byte	-26
 8111 00a1 B6        		.byte	-74
 8112 00a2 E7        		.byte	-25
 8113 00a3 B7        		.byte	-73
 8114 00a4 E8        		.byte	-24
 8115 00a5 B8        		.byte	-72
 8116 00a6 E9        		.byte	-23
 8117 00a7 B9        		.byte	-71
 8118 00a8 EA        		.byte	-22
 8119 00a9 BA        		.byte	-70
 8120 00aa EB        		.byte	-21
 8121 00ab BB        		.byte	-69
 8122 00ac EC        		.byte	-20
 8123 00ad BC        		.byte	-68
 8124 00ae ED        		.byte	-19
 8125 00af BD        		.byte	-67
 8126 00b0 EE        		.byte	-18
 8127 00b1 6F        		.byte	111
 8128 00b2 EF        		.byte	-17
 8129 00b3 BE        		.byte	-66
 8130 00b4 F0        		.byte	-16
 8131 00b5 70        		.byte	112
 8132 00b6 F1        		.byte	-15
 8133 00b7 63        		.byte	99
 8134 00b8 F2        		.byte	-14
 8135 00b9 BF        		.byte	-65
 8136 00ba F3        		.byte	-13
 8137 00bb 79        		.byte	121
 8138 00bc F4        		.byte	-12
 8139 00bd E4        		.byte	-28
 8140 00be F5        		.byte	-11
 8141 00bf 78        		.byte	120
 8142 00c0 F6        		.byte	-10
 8143 00c1 E5        		.byte	-27
 8144 00c2 F7        		.byte	-9
 8145 00c3 C0        		.byte	-64
 8146 00c4 F8        		.byte	-8
 8147 00c5 C1        		.byte	-63
 8148 00c6 F9        		.byte	-7
 8149 00c7 E6        		.byte	-26
 8150 00c8 FA        		.byte	-6
 8151 00c9 C2        		.byte	-62
 8152 00ca FB        		.byte	-5
 8153 00cb C3        		.byte	-61
 8154 00cc FC        		.byte	-4
 8155 00cd C4        		.byte	-60
 8156 00ce FD        		.byte	-3
 8157 00cf C5        		.byte	-59
 8158 00d0 FE        		.byte	-2
 8159 00d1 C6        		.byte	-58
 8160 00d2 FF        		.byte	-1
 8161 00d3 C7        		.byte	-57
 8162               	.global	BlockByteCounter
 8163               		.data
 8166               	BlockByteCounter:
 8167 00b1 0002      		.word	512
 8168               	.global	Text_SD_No_SPI_Up
 8169               		.section	.progmem.data
 8172               	Text_SD_No_SPI_Up:
 8173 00d4 5468 6520 		.string	"The memory card is not "
 8173      6D65 6D6F 
 8173      7279 2063 
 8173      6172 6420 
 8173      6973 206E 
 8174 00ec 00        		.string	""
 8175               	.global	Text_SD_No_SPI_Down
 8178               	Text_SD_No_SPI_Down:
 8179 00ed 7375 7070 		.string	"supports SPI"
 8179      6F72 7473 
 8179      2053 5049 
 8179      00
 8180 00fa 00        		.string	""
 8181               	.global	Text_SD_No_Response
 8184               	Text_SD_No_Response:
 8185 00fb 4D61 7020 		.string	"Map shut up!   "
 8185      7368 7574 
 8185      2075 7021 
 8185      2020 2000 
 8186 010b 00        		.string	""
 8187               	.global	Text_SD_Size_Error_Up
 8190               	Text_SD_Size_Error_Up:
 8191 010c 4361 7061 		.string	"Capacity of SD card  "
 8191      6369 7479 
 8191      206F 6620 
 8191      5344 2063 
 8191      6172 6420 
 8192 0122 00        		.string	""
 8193               	.global	Text_SD_Size_Error_Down
 8196               	Text_SD_Size_Error_Down:
 8197 0123 6E6F 7420 		.string	"not defined!   "
 8197      6465 6669 
 8197      6E65 6421 
 8197      2020 2000 
 8198 0133 00        		.string	""
 8199               	.global	Text_SD_Size
 8202               	Text_SD_Size:
 8203 0134 4361 7061 		.string	"Capacity of SD card  "
 8203      6369 7479 
 8203      206F 6620 
 8203      5344 2063 
 8203      6172 6420 
 8204 014a 00        		.string	""
 8205               	.global	LastReadSector
 8206               		.data
 8209               	LastReadSector:
 8210 00b3 FF        		.byte	-1
 8211 00b4 FF        		.byte	-1
 8212 00b5 FF        		.byte	-1
 8213 00b6 FF        		.byte	-1
 8214               	.global	FATOffset
 8215               	.global	FATOffset
 8216               		.section .bss
 8219               	FATOffset:
 8220 0008 0000 0000 		.skip 4,0
 8221               	.global	FATType
 8222               	.global	FATType
 8225               	FATType:
 8226 000c 00        		.skip 1,0
 8227               	.global	Text_FAT_Type
 8228               		.section	.progmem.data
 8231               	Text_FAT_Type:
 8232 014b 4669 6C65 		.string	"File system "
 8232      2073 7973 
 8232      7465 6D20 
 8232      00
 8233 0158 00        		.string	""
 8234               	.global	Text_FAT32
 8237               	Text_FAT32:
 8238 0159 4641 5433 		.string	"FAT32- Error!  "
 8238      322D 2045 
 8238      7272 6F72 
 8238      2120 2000 
 8239 0169 00        		.string	""
 8240               	.global	Text_FAT16
 8243               	Text_FAT16:
 8244 016a 4641 5431 		.string	"FAT16- Ok.      "
 8244      362D 204F 
 8244      6B2E 2020 
 8244      2020 2020 
 8244      00
 8245 017b 00        		.string	""
 8246               	.global	Text_FAT12
 8249               	Text_FAT12:
 8250 017c 4641 5431 		.string	"FAT12- Error!  "
 8250      322D 2045 
 8250      7272 6F72 
 8250      2120 2000 
 8251 018c 00        		.string	""
 8252               		.lcomm addr.3185,2
 8253               		.lcomm index.3184,1
 8254               		.lcomm byte.3183,1
 8255               		.comm string,25,1
 8256               		.comm Speed,1,1
 8257               		.comm Sector,512,1
 8258               		.comm sFATRecordPointer,24,1
 8259               		.comm FirstRootFolderAddr,4,1
 8260               		.comm SecPerClus,4,1
 8261               		.comm BytsPerSec,4,1
 8262               		.comm ResvdSecCnt,4,1
 8263               		.comm FATSz,4,1
 8264               		.comm DataSec,4,1
 8265               		.comm RootDirSectors,4,1
 8266               		.comm CountofClusters,4,1
 8267               		.comm FirstDataSector,4,1
 8268               		.comm FirstRootFolderSecNum,4,1
 8269               		.comm ClusterSize,4,1
 8614               	.Letext0:
DEFINED SYMBOLS
                            *ABS*:00000000 te.c
C:\Users\User\AppData\Local\Temp/ccevExYf.s:2      *ABS*:0000003f __SREG__
C:\Users\User\AppData\Local\Temp/ccevExYf.s:3      *ABS*:0000003e __SP_H__
C:\Users\User\AppData\Local\Temp/ccevExYf.s:4      *ABS*:0000003d __SP_L__
C:\Users\User\AppData\Local\Temp/ccevExYf.s:5      *ABS*:00000034 __CCP__
C:\Users\User\AppData\Local\Temp/ccevExYf.s:6      *ABS*:00000000 __tmp_reg__
C:\Users\User\AppData\Local\Temp/ccevExYf.s:7      *ABS*:00000001 __zero_reg__
C:\Users\User\AppData\Local\Temp/ccevExYf.s:18     .text:00000000 DRAM_Init
C:\Users\User\AppData\Local\Temp/ccevExYf.s:55     .text:0000001e DRAM_Refresh
C:\Users\User\AppData\Local\Temp/ccevExYf.s:113    .text:00000038 DRAM_ReadNibble
C:\Users\User\AppData\Local\Temp/ccevExYf.s:200    .text:0000008a DRAM_WriteNibble
C:\Users\User\AppData\Local\Temp/ccevExYf.s:299    .text:000000ee DRAM_ReadByte
C:\Users\User\AppData\Local\Temp/ccevExYf.s:342    .text:00000122 DRAM_WriteByte
C:\Users\User\AppData\Local\Temp/ccevExYf.s:385    .text:00000158 WH1602_SendNibble
C:\Users\User\AppData\Local\Temp/ccevExYf.s:513    .text:000001dc WH1602_SendData
C:\Users\User\AppData\Local\Temp/ccevExYf.s:541    .text:000001f6 WH1602_SendCommand
C:\Users\User\AppData\Local\Temp/ccevExYf.s:569    .text:00000210 WH1602_Init
C:\Users\User\AppData\Local\Temp/ccevExYf.s:817    .text:000002ca WH1602_SetTextUpLine
C:\Users\User\AppData\Local\Temp/ccevExYf.s:8029   .progmem.data:00000050 RusCodeTable
C:\Users\User\AppData\Local\Temp/ccevExYf.s:1023   .text:000003ac WH1602_SetTextDownLine
C:\Users\User\AppData\Local\Temp/ccevExYf.s:1229   .text:0000048e WH1602_SetTextProgmemUpLine
C:\Users\User\AppData\Local\Temp/ccevExYf.s:1442   .text:00000564 WH1602_SetTextProgmemDownLine
C:\Users\User\AppData\Local\Temp/ccevExYf.s:1655   .text:0000063a SD_TransmitData
C:\Users\User\AppData\Local\Temp/ccevExYf.s:1678   .text:00000644 SD_SendCommandR1
C:\Users\User\AppData\Local\Temp/ccevExYf.s:1800   .text:000006b6 GetBits
C:\Users\User\AppData\Local\Temp/ccevExYf.s:1885   .text:0000071c SD_GetSize
C:\Users\User\AppData\Local\Temp/ccevExYf.s:2121   .text:0000082c SD_BeginReadBlock
C:\Users\User\AppData\Local\Temp/ccevExYf.s:8166   .data:000000b1 BlockByteCounter
C:\Users\User\AppData\Local\Temp/ccevExYf.s:2239   .text:000008c2 SD_ReadBlockByte
C:\Users\User\AppData\Local\Temp/ccevExYf.s:2323   .text:00000916 SD_ReadBlock
C:\Users\User\AppData\Local\Temp/ccevExYf.s:2505   .text:000009e2 GetByte
C:\Users\User\AppData\Local\Temp/ccevExYf.s:8219   .bss:00000008 FATOffset
C:\Users\User\AppData\Local\Temp/ccevExYf.s:8209   .data:000000b3 LastReadSector
                            *COM*:00000200 Sector
C:\Users\User\AppData\Local\Temp/ccevExYf.s:2583   .text:00000a6c GetShort
C:\Users\User\AppData\Local\Temp/ccevExYf.s:2644   .text:00000ac2 FAT_RecordPointerStepReverse
                            *COM*:00000004 FirstRootFolderAddr
C:\Users\User\AppData\Local\Temp/ccevExYf.s:8225   .bss:0000000c FATType
                            *COM*:00000004 BytsPerSec
                            *COM*:00000004 ResvdSecCnt
                            *COM*:00000004 SecPerClus
                            *COM*:00000004 FirstDataSector
C:\Users\User\AppData\Local\Temp/ccevExYf.s:2909   .text:00000ca6 FAT_PrevFileSearch
                            *COM*:00000018 sFATRecordPointer
C:\Users\User\AppData\Local\Temp/ccevExYf.s:3143   .text:00000e04 FAT_RecordPointerStepForward
                            *COM*:00000004 CountofClusters
C:\Users\User\AppData\Local\Temp/ccevExYf.s:3376   .text:00000fc2 FAT_NextFileSearch
C:\Users\User\AppData\Local\Temp/ccevExYf.s:3610   .text:00001120 GetLong
C:\Users\User\AppData\Local\Temp/ccevExYf.s:3707   .text:000011b6 FAT_GetFileSearch
C:\Users\User\AppData\Local\Temp/ccevExYf.s:4309   .text:000015de FAT_WriteBlock
                            *COM*:00000019 string
                            *COM*:00000004 ClusterSize
C:\Users\User\AppData\Local\Temp/ccevExYf.s:4706   .text:0000188a FAT_BeginFileSearch
                            *COM*:00000004 RootDirSectors
C:\Users\User\AppData\Local\Temp/ccevExYf.s:4844   .text:000019c4 FAT_EnterDirectory
C:\Users\User\AppData\Local\Temp/ccevExYf.s:4998   .text:00001b2a WaitAnyKey
C:\Users\User\AppData\Local\Temp/ccevExYf.s:5050   .text:00001b4e InitAVR
C:\Users\User\AppData\Local\Temp/ccevExYf.s:5105   .text:00001b7a __vector_9
C:\Users\User\AppData\Local\Temp/ccevExYf.s:8017   .bss:00000006 TapeOutMode
C:\Users\User\AppData\Local\Temp/ccevExYf.s:8023   .bss:00000007 TapeOutVolume
                            *COM*:00000001 Speed
C:\Users\User\AppData\Local\Temp/ccevExYf.s:8011   .bss:00000004 LeadToneCounter
C:\Users\User\AppData\Local\Temp/ccevExYf.s:8252   .bss:0000000f index.3184
C:\Users\User\AppData\Local\Temp/ccevExYf.s:8253   .bss:00000010 byte.3183
                             .bss:0000000d addr.3185
C:\Users\User\AppData\Local\Temp/ccevExYf.s:7999   .bss:00000000 BlockSize
C:\Users\User\AppData\Local\Temp/ccevExYf.s:8005   .bss:00000002 DataCounter
C:\Users\User\AppData\Local\Temp/ccevExYf.s:5341   .text:00001d28 OutputImage
C:\Users\User\AppData\Local\Temp/ccevExYf.s:6002   .text:0000200c MemoryTest
C:\Users\User\AppData\Local\Temp/ccevExYf.s:7973   .progmem.data:00000010 Text_Main_Memory_Test
C:\Users\User\AppData\Local\Temp/ccevExYf.s:7979   .progmem.data:00000020 Text_Main_Memory_Test_Error
C:\Users\User\AppData\Local\Temp/ccevExYf.s:7985   .progmem.data:00000030 Text_Main_Memory_Test_OK
C:\Users\User\AppData\Local\Temp/ccevExYf.s:6276   .text:000021a8 TapeMenu
C:\Users\User\AppData\Local\Temp/ccevExYf.s:7991   .progmem.data:00000040 Text_Tape_Menu_No_Image
C:\Users\User\AppData\Local\Temp/ccevExYf.s:6750   .text:00002424 SD_Init
C:\Users\User\AppData\Local\Temp/ccevExYf.s:8172   .progmem.data:000000d4 Text_SD_No_SPI_Up
C:\Users\User\AppData\Local\Temp/ccevExYf.s:8178   .progmem.data:000000ed Text_SD_No_SPI_Down
C:\Users\User\AppData\Local\Temp/ccevExYf.s:8184   .progmem.data:000000fb Text_SD_No_Response
C:\Users\User\AppData\Local\Temp/ccevExYf.s:8190   .progmem.data:0000010c Text_SD_Size_Error_Up
C:\Users\User\AppData\Local\Temp/ccevExYf.s:8196   .progmem.data:00000123 Text_SD_Size_Error_Down
C:\Users\User\AppData\Local\Temp/ccevExYf.s:8202   .progmem.data:00000134 Text_SD_Size
C:\Users\User\AppData\Local\Temp/ccevExYf.s:7199   .text:000025e8 FAT_Init
                            *COM*:00000004 FATSz
                            *COM*:00000004 DataSec
C:\Users\User\AppData\Local\Temp/ccevExYf.s:8231   .progmem.data:0000014b Text_FAT_Type
C:\Users\User\AppData\Local\Temp/ccevExYf.s:8249   .progmem.data:0000017c Text_FAT12
C:\Users\User\AppData\Local\Temp/ccevExYf.s:8243   .progmem.data:0000016a Text_FAT16
C:\Users\User\AppData\Local\Temp/ccevExYf.s:8237   .progmem.data:00000159 Text_FAT32
                            *COM*:00000004 FirstRootFolderSecNum
C:\Users\User\AppData\Local\Temp/ccevExYf.s:7794   .text:00002acc main
C:\Users\User\AppData\Local\Temp/ccevExYf.s:7967   .progmem.data:00000000 Text_Main_Menu_Select

UNDEFINED SYMBOLS
__mulsi3
sprintf
__udivmodsi4
__floatunsisf
ceil
__fixunssfsi
floor
strcpy
__do_copy_data
__do_clear_bss
